ccopy_reg
_reconstructor
p0
(cnltk.classify.naivebayes
NaiveBayesClassifier
p1
c__builtin__
object
p2
Ntp3
Rp4
(dp5
S'_labels'
p6
(lp7
Vclass1
p8
aVclass2
p9
aV class3
p10
asS'_feature_probdist'
p11
(dp12
(g9
Vwelcometothejungle
p13
tp14
g0
(cnltk.probability
ELEProbDist
p15
g2
Ntp16
Rp17
(dp18
S'_gamma'
p19
F0.5
sS'_N'
p20
I3
sS'_freqdist'
p21
g0
(cnltk.probability
FreqDist
p22
c__builtin__
dict
p23
(dp24
NI3
stp25
Rp26
(dp27
g20
I3
sS'_max_cache'
p28
NsS'_item_cache'
p29
NsS'_Nr_cache'
p30
NsbsS'_bins'
p31
I2
sS'_divisor'
p32
F4.0
sbs(g9
Vcelebrate
p33
tp34
g0
(g15
g2
Ntp35
Rp36
(dp37
g19
F0.5
sg20
I3
sg21
g0
(g22
g23
(dp38
NI3
stp39
Rp40
(dp41
g20
I3
sg28
Nsg29
Nsg30
Nsbsg31
I2
sg32
F4.0
sbs(g10
Vachieves
p42
tp43
g0
(g15
g2
Ntp44
Rp45
(dp46
g19
F0.5
sg20
I1
sg21
g0
(g22
g23
(dp47
NI1
stp48
Rp49
(dp50
g20
I1
sg28
Nsg29
Nsg30
Nsbsg31
I2
sg32
F2.0
sbs(g9
Vguide
p51
tp52
g0
(g15
g2
Ntp53
Rp54
(dp55
g19
F0.5
sg20
I3
sg21
g0
(g22
g23
(dp56
NI3
stp57
Rp58
(dp59
g20
I3
sg28
Nsg29
Nsg30
Nsbsg31
I2
sg32
F4.0
sbs(g9
Vdvds
p60
tp61
g0
(g15
g2
Ntp62
Rp63
(dp64
g19
F0.5
sg20
I3
sg21
g0
(g22
g23
(dp65
NI3
stp66
Rp67
(dp68
g20
I3
sg28
Nsg29
Nsg30
Nsbsg31
I2
sg32
F4.0
sbs(g8
Vlet
p69
tp70
g0
(g15
g2
Ntp71
Rp72
(dp73
g19
F0.5
sg20
I3
sg21
g0
(g22
g23
(dp74
NI3
stp75
Rp76
(dp77
g20
I3
sg28
Nsg29
Nsg30
Nsbsg31
I2
sg32
F4.0
sbs(g9
Vbest
p78
tp79
g0
(g15
g2
Ntp80
Rp81
(dp82
g19
F0.5
sg20
I3
sg21
g0
(g22
g23
(dp83
NI3
stp84
Rp85
(dp86
g20
I3
sg28
Nsg29
Nsg30
Nsbsg31
I2
sg32
F4.0
sbs(g9
Vfast
p87
tp88
g0
(g15
g2
Ntp89
Rp90
(dp91
g19
F0.5
sg20
I3
sg21
g0
(g22
g23
(dp92
NI2
sI01
I1
stp93
Rp94
(dp95
g20
I3
sg28
Nsg29
Nsg30
Nsbsg31
I2
sg32
F4.0
sbs(g8
Vadele
p96
tp97
g0
(g15
g2
Ntp98
Rp99
(dp100
g19
F0.5
sg20
I3
sg21
g0
(g22
g23
(dp101
NI3
stp102
Rp103
(dp104
g20
I3
sg28
Nsg29
Nsg30
Nsbsg31
I2
sg32
F4.0
sbs(g9
Vtoday
p105
tp106
g0
(g15
g2
Ntp107
Rp108
(dp109
g19
F0.5
sg20
I3
sg21
g0
(g22
g23
(dp110
NI2
sI01
I1
stp111
Rp112
(dp113
g20
I3
sg28
Nsg29
Nsg30
Nsbsg31
I2
sg32
F4.0
sbs(g10
Vnew
p114
tp115
g0
(g15
g2
Ntp116
Rp117
(dp118
g19
F0.5
sg20
I1
sg21
g0
(g22
g23
(dp119
I01
I1
stp120
Rp121
(dp122
g20
I1
sg28
Nsg29
Nsg30
Nsbsg31
I2
sg32
F2.0
sbs(g8
g105
tp123
g0
(g15
g2
Ntp124
Rp125
(dp126
g19
F0.5
sg20
I3
sg21
g0
(g22
g23
(dp127
NI3
stp128
Rp129
(dp130
g20
I3
sg28
Nsg29
Nsg30
Nsbsg31
I2
sg32
F4.0
sbs(g10
g13
tp131
g0
(g15
g2
Ntp132
Rp133
(dp134
g19
F0.5
sg20
I1
sg21
g0
(g22
g23
(dp135
NI1
stp136
Rp137
(dp138
g20
I1
sg28
Nsg29
Nsg30
Nsbsg31
I2
sg32
F2.0
sbs(g8
Vjennylewis
p139
tp140
g0
(g15
g2
Ntp141
Rp142
(dp143
g19
F0.5
sg20
I3
sg21
g0
(g22
g23
(dp144
NI3
stp145
Rp146
(dp147
g20
I3
sg28
Nsg29
Nsg30
Nsbsg31
I2
sg32
F4.0
sbs(g10
Vbuying
p148
tp149
g0
(g15
g2
Ntp150
Rp151
(dp152
g19
F0.5
sg20
I1
sg21
g0
(g22
g23
(dp153
NI1
stp154
Rp155
(dp156
g20
I1
sg28
Nsg29
Nsg30
Nsbsg31
I2
sg32
F2.0
sbs(g8
Vrun
p157
tp158
g0
(g15
g2
Ntp159
Rp160
(dp161
g19
F0.5
sg20
I3
sg21
g0
(g22
g23
(dp162
NI3
stp163
Rp164
(dp165
g20
I3
sg28
Nsg29
Nsg30
Nsbsg31
I2
sg32
F4.0
sbs(g10
Vone
p166
tp167
g0
(g15
g2
Ntp168
Rp169
(dp170
g19
F0.5
sg20
I1
sg21
g0
(g22
g23
(dp171
NI1
stp172
Rp173
(dp174
g20
I1
sg28
Nsg29
Nsg30
Nsbsg31
I2
sg32
F2.0
sbs(g9
g69
tp175
g0
(g15
g2
Ntp176
Rp177
(dp178
g19
F0.5
sg20
I3
sg21
g0
(g22
g23
(dp179
NI2
sI01
I1
stp180
Rp181
(dp182
g20
I3
sg28
Nsg29
Nsg30
Nsbsg31
I2
sg32
F4.0
sbs(g8
Vused
p183
tp184
g0
(g15
g2
Ntp185
Rp186
(dp187
g19
F0.5
sg20
I3
sg21
g0
(g22
g23
(dp188
NI3
stp189
Rp190
(dp191
g20
I3
sg28
Nsg29
Nsg30
Nsbsg31
I2
sg32
F4.0
sbs(g9
V_cafe
p192
tp193
g0
(g15
g2
Ntp194
Rp195
(dp196
g19
F0.5
sg20
I3
sg21
g0
(g22
g23
(dp197
NI3
stp198
Rp199
(dp200
g20
I3
sg28
Nsg29
Nsg30
Nsbsg31
I2
sg32
F4.0
sbs(g8
Vcertificate
p201
tp202
g0
(g15
g2
Ntp203
Rp204
(dp205
g19
F0.5
sg20
I3
sg21
g0
(g22
g23
(dp206
NI3
stp207
Rp208
(dp209
g20
I3
sg28
Nsg29
Nsg30
Nsbsg31
I2
sg32
F4.0
sbs(g8
Vget
p210
tp211
g0
(g15
g2
Ntp212
Rp213
(dp214
g19
F0.5
sg20
I3
sg21
g0
(g22
g23
(dp215
NI3
stp216
Rp217
(dp218
g20
I3
sg28
Nsg29
Nsg30
Nsbsg31
I2
sg32
F4.0
sbs(g8
Vtwinpeaks
p219
tp220
g0
(g15
g2
Ntp221
Rp222
(dp223
g19
F0.5
sg20
I3
sg21
g0
(g22
g23
(dp224
NI2
sI01
I1
stp225
Rp226
(dp227
g20
I3
sg28
Nsg29
Nsg30
Nsbsg31
I2
sg32
F4.0
sbs(g8
g192
tp228
g0
(g15
g2
Ntp229
Rp230
(dp231
g19
F0.5
sg20
I3
sg21
g0
(g22
g23
(dp232
NI2
sI01
I1
stp233
Rp234
(dp235
g20
I3
sg28
Nsg29
Nsg30
Nsbsg31
I2
sg32
F4.0
sbs(g9
Vlongest
p236
tp237
g0
(g15
g2
Ntp238
Rp239
(dp240
g19
F0.5
sg20
I3
sg21
g0
(g22
g23
(dp241
NI2
sI01
I1
stp242
Rp243
(dp244
g20
I3
sg28
Nsg29
Nsg30
Nsbsg31
I2
sg32
F4.0
sbs(g10
Valongwaydown
p245
tp246
g0
(g15
g2
Ntp247
Rp248
(dp249
g19
F0.5
sg20
I1
sg21
g0
(g22
g23
(dp250
NI1
stp251
Rp252
(dp253
g20
I1
sg28
Nsg29
Nsg30
Nsbsg31
I2
sg32
F2.0
sbs(g8
g245
tp254
g0
(g15
g2
Ntp255
Rp256
(dp257
g19
F0.5
sg20
I3
sg21
g0
(g22
g23
(dp258
NI2
sI01
I1
stp259
Rp260
(dp261
g20
I3
sg28
Nsg29
Nsg30
Nsbsg31
I2
sg32
F4.0
sbs(g9
Vplease
p262
tp263
g0
(g15
g2
Ntp264
Rp265
(dp266
g19
F0.5
sg20
I3
sg21
g0
(g22
g23
(dp267
NI2
sI01
I1
stp268
Rp269
(dp270
g20
I3
sg28
Nsg29
Nsg30
Nsbsg31
I2
sg32
F4.0
sbs(g9
Vnoah
p271
tp272
g0
(g15
g2
Ntp273
Rp274
(dp275
g19
F0.5
sg20
I3
sg21
g0
(g22
g23
(dp276
NI3
stp277
Rp278
(dp279
g20
I3
sg28
Nsg29
Nsg30
Nsbsg31
I2
sg32
F4.0
sbs(g8
Vcould
p280
tp281
g0
(g15
g2
Ntp282
Rp283
(dp284
g19
F0.5
sg20
I3
sg21
g0
(g22
g23
(dp285
NI2
sI01
I1
stp286
Rp287
(dp288
g20
I3
sg28
Nsg29
Nsg30
Nsbsg31
I2
sg32
F4.0
sbs(g10
g192
tp289
g0
(g15
g2
Ntp290
Rp291
(dp292
g19
F0.5
sg20
I1
sg21
g0
(g22
g23
(dp293
NI1
stp294
Rp295
(dp296
g20
I1
sg28
Nsg29
Nsg30
Nsbsg31
I2
sg32
F2.0
sbs(g9
g157
tp297
g0
(g15
g2
Ntp298
Rp299
(dp300
g19
F0.5
sg20
I3
sg21
g0
(g22
g23
(dp301
NI2
sI01
I1
stp302
Rp303
(dp304
g20
I3
sg28
Nsg29
Nsg30
Nsbsg31
I2
sg32
F4.0
sbs(g8
g60
tp305
g0
(g15
g2
Ntp306
Rp307
(dp308
g19
F0.5
sg20
I3
sg21
g0
(g22
g23
(dp309
NI2
sI01
I1
stp310
Rp311
(dp312
g20
I3
sg28
Nsg29
Nsg30
Nsbsg31
I2
sg32
F4.0
sbs(g9
g96
tp313
g0
(g15
g2
Ntp314
Rp315
(dp316
g19
F0.5
sg20
I3
sg21
g0
(g22
g23
(dp317
NI2
sI01
I1
stp318
Rp319
(dp320
g20
I3
sg28
Nsg29
Nsg30
Nsbsg31
I2
sg32
F4.0
sbs(g8
Vrundown
p321
tp322
g0
(g15
g2
Ntp323
Rp324
(dp325
g19
F0.5
sg20
I3
sg21
g0
(g22
g23
(dp326
NI2
sI01
I1
stp327
Rp328
(dp329
g20
I3
sg28
Nsg29
Nsg30
Nsbsg31
I2
sg32
F4.0
sbs(g8
Vjoining
p330
tp331
g0
(g15
g2
Ntp332
Rp333
(dp334
g19
F0.5
sg20
I3
sg21
g0
(g22
g23
(dp335
NI2
sI01
I1
stp336
Rp337
(dp338
g20
I3
sg28
Nsg29
Nsg30
Nsbsg31
I2
sg32
F4.0
sbs(g10
Vsignings
p339
tp340
g0
(g15
g2
Ntp341
Rp342
(dp343
g19
F0.5
sg20
I1
sg21
g0
(g22
g23
(dp344
NI1
stp345
Rp346
(dp347
g20
I1
sg28
Nsg29
Nsg30
Nsbsg31
I2
sg32
F2.0
sbs(g8
Vsince
p348
tp349
g0
(g15
g2
Ntp350
Rp351
(dp352
g19
F0.5
sg20
I3
sg21
g0
(g22
g23
(dp353
NI3
stp354
Rp355
(dp356
g20
I3
sg28
Nsg29
Nsg30
Nsbsg31
I2
sg32
F4.0
sbs(g8
Vgift
p357
tp358
g0
(g15
g2
Ntp359
Rp360
(dp361
g19
F0.5
sg20
I3
sg21
g0
(g22
g23
(dp362
NI3
stp363
Rp364
(dp365
g20
I3
sg28
Nsg29
Nsg30
Nsbsg31
I2
sg32
F4.0
sbs(g10
g157
tp366
g0
(g15
g2
Ntp367
Rp368
(dp369
g19
F0.5
sg20
I1
sg21
g0
(g22
g23
(dp370
NI1
stp371
Rp372
(dp373
g20
I1
sg28
Nsg29
Nsg30
Nsbsg31
I2
sg32
F2.0
sbs(g9
g114
tp374
g0
(g15
g2
Ntp375
Rp376
(dp377
g19
F0.5
sg20
I3
sg21
g0
(g22
g23
(dp378
NI3
stp379
Rp380
(dp381
g20
I3
sg28
Nsg29
Nsg30
Nsbsg31
I2
sg32
F4.0
sbs(g9
Vorder
p382
tp383
g0
(g15
g2
Ntp384
Rp385
(dp386
g19
F0.5
sg20
I3
sg21
g0
(g22
g23
(dp387
NI2
sI01
I1
stp388
Rp389
(dp390
g20
I3
sg28
Nsg29
Nsg30
Nsbsg31
I2
sg32
F4.0
sbs(g9
Vhashtag
p391
tp392
g0
(g15
g2
Ntp393
Rp394
(dp395
g19
F0.5
sg20
I3
sg21
g0
(g22
g23
(dp396
NI2
sI01
I1
stp397
Rp398
(dp399
g20
I3
sg28
Nsg29
Nsg30
Nsbsg31
I2
sg32
F4.0
sbs(g8
g13
tp400
g0
(g15
g2
Ntp401
Rp402
(dp403
g19
F0.5
sg20
I3
sg21
g0
(g22
g23
(dp404
NI2
sI01
I1
stp405
Rp406
(dp407
g20
I3
sg28
Nsg29
Nsg30
Nsbsg31
I2
sg32
F4.0
sbs(g9
g330
tp408
g0
(g15
g2
Ntp409
Rp410
(dp411
g19
F0.5
sg20
I3
sg21
g0
(g22
g23
(dp412
NI3
stp413
Rp414
(dp415
g20
I3
sg28
Nsg29
Nsg30
Nsbsg31
I2
sg32
F4.0
sbs(g10
Vread
p416
tp417
g0
(g15
g2
Ntp418
Rp419
(dp420
g19
F0.5
sg20
I1
sg21
g0
(g22
g23
(dp421
NI1
stp422
Rp423
(dp424
g20
I1
sg28
Nsg29
Nsg30
Nsbsg31
I2
sg32
F2.0
sbs(g10
g96
tp425
g0
(g15
g2
Ntp426
Rp427
(dp428
g19
F0.5
sg20
I1
sg21
g0
(g22
g23
(dp429
NI1
stp430
Rp431
(dp432
g20
I1
sg28
Nsg29
Nsg30
Nsbsg31
I2
sg32
F2.0
sbs(g8
Vamp
p433
tp434
g0
(g15
g2
Ntp435
Rp436
(dp437
g19
F0.5
sg20
I3
sg21
g0
(g22
g23
(dp438
NI2
sI01
I1
stp439
Rp440
(dp441
g20
I3
sg28
Nsg29
Nsg30
Nsbsg31
I2
sg32
F4.0
sbs(g10
Valbums
p442
tp443
g0
(g15
g2
Ntp444
Rp445
(dp446
g19
F0.5
sg20
I1
sg21
g0
(g22
g23
(dp447
I01
I1
stp448
Rp449
(dp450
g20
I1
sg28
Nsg29
Nsg30
Nsbsg31
I2
sg32
F2.0
sbs(g9
Vcherlloyd
p451
tp452
g0
(g15
g2
Ntp453
Rp454
(dp455
g19
F0.5
sg20
I3
sg21
g0
(g22
g23
(dp456
NI3
stp457
Rp458
(dp459
g20
I3
sg28
Nsg29
Nsg30
Nsbsg31
I2
sg32
F4.0
sbs(g10
g357
tp460
g0
(g15
g2
Ntp461
Rp462
(dp463
g19
F0.5
sg20
I1
sg21
g0
(g22
g23
(dp464
NI1
stp465
Rp466
(dp467
g20
I1
sg28
Nsg29
Nsg30
Nsbsg31
I2
sg32
F2.0
sbs(g8
Vtweet
p468
tp469
g0
(g15
g2
Ntp470
Rp471
(dp472
g19
F0.5
sg20
I3
sg21
g0
(g22
g23
(dp473
NI2
sI01
I1
stp474
Rp475
(dp476
g20
I3
sg28
Nsg29
Nsg30
Nsbsg31
I2
sg32
F4.0
sbs(g10
Vstore
p477
tp478
g0
(g15
g2
Ntp479
Rp480
(dp481
g19
F0.5
sg20
I1
sg21
g0
(g22
g23
(dp482
NI1
stp483
Rp484
(dp485
g20
I1
sg28
Nsg29
Nsg30
Nsbsg31
I2
sg32
F2.0
sbs(g8
g262
tp486
g0
(g15
g2
Ntp487
Rp488
(dp489
g19
F0.5
sg20
I3
sg21
g0
(g22
g23
(dp490
NI3
stp491
Rp492
(dp493
g20
I3
sg28
Nsg29
Nsg30
Nsbsg31
I2
sg32
F4.0
sbs(g9
Vbamhmvsignings
p494
tp495
g0
(g15
g2
Ntp496
Rp497
(dp498
g19
F0.5
sg20
I3
sg21
g0
(g22
g23
(dp499
NI2
sI01
I1
stp500
Rp501
(dp502
g20
I3
sg28
Nsg29
Nsg30
Nsbsg31
I2
sg32
F4.0
sbs(g9
g348
tp503
g0
(g15
g2
Ntp504
Rp505
(dp506
g19
F0.5
sg20
I3
sg21
g0
(g22
g23
(dp507
NI2
sI01
I1
stp508
Rp509
(dp510
g20
I3
sg28
Nsg29
Nsg30
Nsbsg31
I2
sg32
F4.0
sbs(g9
Vtompetty
p511
tp512
g0
(g15
g2
Ntp513
Rp514
(dp515
g19
F0.5
sg20
I3
sg21
g0
(g22
g23
(dp516
NI3
stp517
Rp518
(dp519
g20
I3
sg28
Nsg29
Nsg30
Nsbsg31
I2
sg32
F4.0
sbs(g10
Vconsecutive
p520
tp521
g0
(g15
g2
Ntp522
Rp523
(dp524
g19
F0.5
sg20
I1
sg21
g0
(g22
g23
(dp525
NI1
stp526
Rp527
(dp528
g20
I1
sg28
Nsg29
Nsg30
Nsbsg31
I2
sg32
F2.0
sbs(g8
Vwearethebest
p529
tp530
g0
(g15
g2
Ntp531
Rp532
(dp533
g19
F0.5
sg20
I3
sg21
g0
(g22
g23
(dp534
NI2
sI01
I1
stp535
Rp536
(dp537
g20
I3
sg28
Nsg29
Nsg30
Nsbsg31
I2
sg32
F4.0
sbs(g9
Vtheoryofadeadman
p538
tp539
g0
(g15
g2
Ntp540
Rp541
(dp542
g19
F0.5
sg20
I3
sg21
g0
(g22
g23
(dp543
NI3
stp544
Rp545
(dp546
g20
I3
sg28
Nsg29
Nsg30
Nsbsg31
I2
sg32
F4.0
sbs(g8
g511
tp547
g0
(g15
g2
Ntp548
Rp549
(dp550
g19
F0.5
sg20
I3
sg21
g0
(g22
g23
(dp551
NI3
stp552
Rp553
(dp554
g20
I3
sg28
Nsg29
Nsg30
Nsbsg31
I2
sg32
F4.0
sbs(g8
g339
tp555
g0
(g15
g2
Ntp556
Rp557
(dp558
g19
F0.5
sg20
I3
sg21
g0
(g22
g23
(dp559
NI2
sI01
I1
stp560
Rp561
(dp562
g20
I3
sg28
Nsg29
Nsg30
Nsbsg31
I2
sg32
F4.0
sbs(g10
g451
tp563
g0
(g15
g2
Ntp564
Rp565
(dp566
g19
F0.5
sg20
I1
sg21
g0
(g22
g23
(dp567
I01
I1
stp568
Rp569
(dp570
g20
I1
sg28
Nsg29
Nsg30
Nsbsg31
I2
sg32
F2.0
sbs(g9
g357
tp571
g0
(g15
g2
Ntp572
Rp573
(dp574
g19
F0.5
sg20
I3
sg21
g0
(g22
g23
(dp575
NI2
sI01
I1
stp576
Rp577
(dp578
g20
I3
sg28
Nsg29
Nsg30
Nsbsg31
I2
sg32
F4.0
sbs(g8
g538
tp579
g0
(g15
g2
Ntp580
Rp581
(dp582
g19
F0.5
sg20
I3
sg21
g0
(g22
g23
(dp583
NI3
stp584
Rp585
(dp586
g20
I3
sg28
Nsg29
Nsg30
Nsbsg31
I2
sg32
F4.0
sbs(g8
g51
tp587
g0
(g15
g2
Ntp588
Rp589
(dp590
g19
F0.5
sg20
I3
sg21
g0
(g22
g23
(dp591
NI3
stp592
Rp593
(dp594
g20
I3
sg28
Nsg29
Nsg30
Nsbsg31
I2
sg32
F4.0
sbs(g8
Vsee
p595
tp596
g0
(g15
g2
Ntp597
Rp598
(dp599
g19
F0.5
sg20
I3
sg21
g0
(g22
g23
(dp600
NI3
stp601
Rp602
(dp603
g20
I3
sg28
Nsg29
Nsg30
Nsbsg31
I2
sg32
F4.0
sbs(g9
g280
tp604
g0
(g15
g2
Ntp605
Rp606
(dp607
g19
F0.5
sg20
I3
sg21
g0
(g22
g23
(dp608
NI3
stp609
Rp610
(dp611
g20
I3
sg28
Nsg29
Nsg30
Nsbsg31
I2
sg32
F4.0
sbs(g8
Vnew
p612
tp613
g0
(g15
g2
Ntp614
Rp615
(dp616
g19
F0.5
sg20
I3
sg21
g0
(g22
g23
(dp617
NI2
sI01
I1
stp618
Rp619
(dp620
g20
I3
sg28
Nsg29
Nsg30
Nsbsg31
I2
sg32
F4.0
sbs(g10
g538
tp621
g0
(g15
g2
Ntp622
Rp623
(dp624
g19
F0.5
sg20
I1
sg21
g0
(g22
g23
(dp625
I01
I1
stp626
Rp627
(dp628
g20
I1
sg28
Nsg29
Nsg30
Nsbsg31
I2
sg32
F2.0
sbs(g10
Varrives
p629
tp630
g0
(g15
g2
Ntp631
Rp632
(dp633
g19
F0.5
sg20
I1
sg21
g0
(g22
g23
(dp634
NI1
stp635
Rp636
(dp637
g20
I1
sg28
Nsg29
Nsg30
Nsbsg31
I2
sg32
F2.0
sbs(g8
g451
tp638
g0
(g15
g2
Ntp639
Rp640
(dp641
g19
F0.5
sg20
I3
sg21
g0
(g22
g23
(dp642
NI3
stp643
Rp644
(dp645
g20
I3
sg28
Nsg29
Nsg30
Nsbsg31
I2
sg32
F4.0
sbs(g9
g529
tp646
g0
(g15
g2
Ntp647
Rp648
(dp649
g19
F0.5
sg20
I3
sg21
g0
(g22
g23
(dp650
NI3
stp651
Rp652
(dp653
g20
I3
sg28
Nsg29
Nsg30
Nsbsg31
I2
sg32
F4.0
sbs(g10
g210
tp654
g0
(g15
g2
Ntp655
Rp656
(dp657
g19
F0.5
sg20
I1
sg21
g0
(g22
g23
(dp658
NI1
stp659
Rp660
(dp661
g20
I1
sg28
Nsg29
Nsg30
Nsbsg31
I2
sg32
F2.0
sbs(g9
g139
tp662
g0
(g15
g2
Ntp663
Rp664
(dp665
g19
F0.5
sg20
I3
sg21
g0
(g22
g23
(dp666
NI3
stp667
Rp668
(dp669
g20
I3
sg28
Nsg29
Nsg30
Nsbsg31
I2
sg32
F4.0
sbs(g8
Vones
p670
tp671
g0
(g15
g2
Ntp672
Rp673
(dp674
g19
F0.5
sg20
I3
sg21
g0
(g22
g23
(dp675
NI2
sI01
I1
stp676
Rp677
(dp678
g20
I3
sg28
Nsg29
Nsg30
Nsbsg31
I2
sg32
F4.0
sbs(g8
g166
tp679
g0
(g15
g2
Ntp680
Rp681
(dp682
g19
F0.5
sg20
I3
sg21
g0
(g22
g23
(dp683
NI3
stp684
Rp685
(dp686
g20
I3
sg28
Nsg29
Nsg30
Nsbsg31
I2
sg32
F4.0
sbs(g8
Vpost
p687
tp688
g0
(g15
g2
Ntp689
Rp690
(dp691
g19
F0.5
sg20
I3
sg21
g0
(g22
g23
(dp692
NI3
stp693
Rp694
(dp695
g20
I3
sg28
Nsg29
Nsg30
Nsbsg31
I2
sg32
F4.0
sbs(g8
Vhopeful
p696
tp697
g0
(g15
g2
Ntp698
Rp699
(dp700
g19
F0.5
sg20
I3
sg21
g0
(g22
g23
(dp701
NI2
sI01
I1
stp702
Rp703
(dp704
g20
I3
sg28
Nsg29
Nsg30
Nsbsg31
I2
sg32
F4.0
sbs(g9
Vpics
p705
tp706
g0
(g15
g2
Ntp707
Rp708
(dp709
g19
F0.5
sg20
I3
sg21
g0
(g22
g23
(dp710
NI2
sI01
I1
stp711
Rp712
(dp713
g20
I3
sg28
Nsg29
Nsg30
Nsbsg31
I2
sg32
F4.0
sbs(g10
Vnumber
p714
tp715
g0
(g15
g2
Ntp716
Rp717
(dp718
g19
F0.5
sg20
I1
sg21
g0
(g22
g23
(dp719
NI1
stp720
Rp721
(dp722
g20
I1
sg28
Nsg29
Nsg30
Nsbsg31
I2
sg32
F2.0
sbs(g9
g687
tp723
g0
(g15
g2
Ntp724
Rp725
(dp726
g19
F0.5
sg20
I3
sg21
g0
(g22
g23
(dp727
NI2
sI01
I1
stp728
Rp729
(dp730
g20
I3
sg28
Nsg29
Nsg30
Nsbsg31
I2
sg32
F4.0
sbs(g8
g148
tp731
g0
(g15
g2
Ntp732
Rp733
(dp734
g19
F0.5
sg20
I3
sg21
g0
(g22
g23
(dp735
NI2
sI01
I1
stp736
Rp737
(dp738
g20
I3
sg28
Nsg29
Nsg30
Nsbsg31
I2
sg32
F4.0
sbs(g8
Valbum
p739
tp740
g0
(g15
g2
Ntp741
Rp742
(dp743
g19
F0.5
sg20
I3
sg21
g0
(g22
g23
(dp744
NI3
stp745
Rp746
(dp747
g20
I3
sg28
Nsg29
Nsg30
Nsbsg31
I2
sg32
F4.0
sbs(g9
g201
tp748
g0
(g15
g2
Ntp749
Rp750
(dp751
g19
F0.5
sg20
I3
sg21
g0
(g22
g23
(dp752
NI2
sI01
I1
stp753
Rp754
(dp755
g20
I3
sg28
Nsg29
Nsg30
Nsbsg31
I2
sg32
F4.0
sbs(g8
Vedsheeran
p756
tp757
g0
(g15
g2
Ntp758
Rp759
(dp760
g19
F0.5
sg20
I3
sg21
g0
(g22
g23
(dp761
NI3
stp762
Rp763
(dp764
g20
I3
sg28
Nsg29
Nsg30
Nsbsg31
I2
sg32
F4.0
sbs(g9
g756
tp765
g0
(g15
g2
Ntp766
Rp767
(dp768
g19
F0.5
sg20
I3
sg21
g0
(g22
g23
(dp769
NI2
sI01
I1
stp770
Rp771
(dp772
g20
I3
sg28
Nsg29
Nsg30
Nsbsg31
I2
sg32
F4.0
sbs(g8
g416
tp773
g0
(g15
g2
Ntp774
Rp775
(dp776
g19
F0.5
sg20
I3
sg21
g0
(g22
g23
(dp777
NI2
sI01
I1
stp778
Rp779
(dp780
g20
I3
sg28
Nsg29
Nsg30
Nsbsg31
I2
sg32
F4.0
sbs(g9
g148
tp781
g0
(g15
g2
Ntp782
Rp783
(dp784
g19
F0.5
sg20
I3
sg21
g0
(g22
g23
(dp785
NI3
stp786
Rp787
(dp788
g20
I3
sg28
Nsg29
Nsg30
Nsbsg31
I2
sg32
F4.0
sbs(g10
g756
tp789
g0
(g15
g2
Ntp790
Rp791
(dp792
g19
F0.5
sg20
I1
sg21
g0
(g22
g23
(dp793
NI1
stp794
Rp795
(dp796
g20
I1
sg28
Nsg29
Nsg30
Nsbsg31
I2
sg32
F2.0
sbs(g9
g166
tp797
g0
(g15
g2
Ntp798
Rp799
(dp800
g19
F0.5
sg20
I3
sg21
g0
(g22
g23
(dp801
NI2
sI01
I1
stp802
Rp803
(dp804
g20
I3
sg28
Nsg29
Nsg30
Nsbsg31
I2
sg32
F4.0
sbs(g9
g339
tp805
g0
(g15
g2
Ntp806
Rp807
(dp808
g19
F0.5
sg20
I3
sg21
g0
(g22
g23
(dp809
NI3
stp810
Rp811
(dp812
g20
I3
sg28
Nsg29
Nsg30
Nsbsg31
I2
sg32
F4.0
sbs(g10
g321
tp813
g0
(g15
g2
Ntp814
Rp815
(dp816
g19
F0.5
sg20
I1
sg21
g0
(g22
g23
(dp817
NI1
stp818
Rp819
(dp820
g20
I1
sg28
Nsg29
Nsg30
Nsbsg31
I2
sg32
F2.0
sbs(g10
g687
tp821
g0
(g15
g2
Ntp822
Rp823
(dp824
g19
F0.5
sg20
I1
sg21
g0
(g22
g23
(dp825
NI1
stp826
Rp827
(dp828
g20
I1
sg28
Nsg29
Nsg30
Nsbsg31
I2
sg32
F2.0
sbs(g10
g670
tp829
g0
(g15
g2
Ntp830
Rp831
(dp832
g19
F0.5
sg20
I1
sg21
g0
(g22
g23
(dp833
NI1
stp834
Rp835
(dp836
g20
I1
sg28
Nsg29
Nsg30
Nsbsg31
I2
sg32
F2.0
sbs(g8
Vuse
p837
tp838
g0
(g15
g2
Ntp839
Rp840
(dp841
g19
F0.5
sg20
I3
sg21
g0
(g22
g23
(dp842
NI2
sI01
I1
stp843
Rp844
(dp845
g20
I3
sg28
Nsg29
Nsg30
Nsbsg31
I2
sg32
F4.0
sbs(g9
g595
tp846
g0
(g15
g2
Ntp847
Rp848
(dp849
g19
F0.5
sg20
I3
sg21
g0
(g22
g23
(dp850
NI1
sI01
I2
stp851
Rp852
(dp853
g20
I3
sg28
Nsg29
Nsg30
Nsbsg31
I2
sg32
F4.0
sbs(g10
g33
tp854
g0
(g15
g2
Ntp855
Rp856
(dp857
g19
F0.5
sg20
I1
sg21
g0
(g22
g23
(dp858
NI1
stp859
Rp860
(dp861
g20
I1
sg28
Nsg29
Nsg30
Nsbsg31
I2
sg32
F2.0
sbs(g8
g87
tp862
g0
(g15
g2
Ntp863
Rp864
(dp865
g19
F0.5
sg20
I3
sg21
g0
(g22
g23
(dp866
NI3
stp867
Rp868
(dp869
g20
I3
sg28
Nsg29
Nsg30
Nsbsg31
I2
sg32
F4.0
sbs(g10
g60
tp870
g0
(g15
g2
Ntp871
Rp872
(dp873
g19
F0.5
sg20
I1
sg21
g0
(g22
g23
(dp874
NI1
stp875
Rp876
(dp877
g20
I1
sg28
Nsg29
Nsg30
Nsbsg31
I2
sg32
F2.0
sbs(g10
g201
tp878
g0
(g15
g2
Ntp879
Rp880
(dp881
g19
F0.5
sg20
I1
sg21
g0
(g22
g23
(dp882
NI1
stp883
Rp884
(dp885
g20
I1
sg28
Nsg29
Nsg30
Nsbsg31
I2
sg32
F2.0
sbs(g9
g245
tp886
g0
(g15
g2
Ntp887
Rp888
(dp889
g19
F0.5
sg20
I3
sg21
g0
(g22
g23
(dp890
NI3
stp891
Rp892
(dp893
g20
I3
sg28
Nsg29
Nsg30
Nsbsg31
I2
sg32
F4.0
sbs(g9
g321
tp894
g0
(g15
g2
Ntp895
Rp896
(dp897
g19
F0.5
sg20
I3
sg21
g0
(g22
g23
(dp898
NI3
stp899
Rp900
(dp901
g20
I3
sg28
Nsg29
Nsg30
Nsbsg31
I2
sg32
F4.0
sbs(g8
g78
tp902
g0
(g15
g2
Ntp903
Rp904
(dp905
g19
F0.5
sg20
I3
sg21
g0
(g22
g23
(dp906
NI2
sI01
I1
stp907
Rp908
(dp909
g20
I3
sg28
Nsg29
Nsg30
Nsbsg31
I2
sg32
F4.0
sbs(g8
g236
tp910
g0
(g15
g2
Ntp911
Rp912
(dp913
g19
F0.5
sg20
I3
sg21
g0
(g22
g23
(dp914
NI3
stp915
Rp916
(dp917
g20
I3
sg28
Nsg29
Nsg30
Nsbsg31
I2
sg32
F4.0
sbs(g9
g520
tp918
g0
(g15
g2
Ntp919
Rp920
(dp921
g19
F0.5
sg20
I3
sg21
g0
(g22
g23
(dp922
NI2
sI01
I1
stp923
Rp924
(dp925
g20
I3
sg28
Nsg29
Nsg30
Nsbsg31
I2
sg32
F4.0
sbs(g10
g595
tp926
g0
(g15
g2
Ntp927
Rp928
(dp929
g19
F0.5
sg20
I1
sg21
g0
(g22
g23
(dp930
NI1
stp931
Rp932
(dp933
g20
I1
sg28
Nsg29
Nsg30
Nsbsg31
I2
sg32
F2.0
sbs(g8
g382
tp934
g0
(g15
g2
Ntp935
Rp936
(dp937
g19
F0.5
sg20
I3
sg21
g0
(g22
g23
(dp938
NI3
stp939
Rp940
(dp941
g20
I3
sg28
Nsg29
Nsg30
Nsbsg31
I2
sg32
F4.0
sbs(g8
Vpics
p942
tp943
g0
(g15
g2
Ntp944
Rp945
(dp946
g19
F0.5
sg20
I3
sg21
g0
(g22
g23
(dp947
NI2
sI01
I1
stp948
Rp949
(dp950
g20
I3
sg28
Nsg29
Nsg30
Nsbsg31
I2
sg32
F4.0
sbs(g10
g511
tp951
g0
(g15
g2
Ntp952
Rp953
(dp954
g19
F0.5
sg20
I1
sg21
g0
(g22
g23
(dp955
I01
I1
stp956
Rp957
(dp958
g20
I1
sg28
Nsg29
Nsg30
Nsbsg31
I2
sg32
F2.0
sbs(g8
g629
tp959
g0
(g15
g2
Ntp960
Rp961
(dp962
g19
F0.5
sg20
I3
sg21
g0
(g22
g23
(dp963
NI3
stp964
Rp965
(dp966
g20
I3
sg28
Nsg29
Nsg30
Nsbsg31
I2
sg32
F4.0
sbs(g8
g477
tp967
g0
(g15
g2
Ntp968
Rp969
(dp970
g19
F0.5
sg20
I3
sg21
g0
(g22
g23
(dp971
NI2
sI01
I1
stp972
Rp973
(dp974
g20
I3
sg28
Nsg29
Nsg30
Nsbsg31
I2
sg32
F4.0
sbs(g8
Vbamhmvsignings
p975
tp976
g0
(g15
g2
Ntp977
Rp978
(dp979
g19
F0.5
sg20
I3
sg21
g0
(g22
g23
(dp980
NI2
sI01
I1
stp981
Rp982
(dp983
g20
I3
sg28
Nsg29
Nsg30
Nsbsg31
I2
sg32
F4.0
sbs(g10
g78
tp984
g0
(g15
g2
Ntp985
Rp986
(dp987
g19
F0.5
sg20
I1
sg21
g0
(g22
g23
(dp988
NI1
stp989
Rp990
(dp991
g20
I1
sg28
Nsg29
Nsg30
Nsbsg31
I2
sg32
F2.0
sbs(g10
g262
tp992
g0
(g15
g2
Ntp993
Rp994
(dp995
g19
F0.5
sg20
I1
sg21
g0
(g22
g23
(dp996
NI1
stp997
Rp998
(dp999
g20
I1
sg28
Nsg29
Nsg30
Nsbsg31
I2
sg32
F2.0
sbs(g10
g382
tp1000
g0
(g15
g2
Ntp1001
Rp1002
(dp1003
g19
F0.5
sg20
I1
sg21
g0
(g22
g23
(dp1004
NI1
stp1005
Rp1006
(dp1007
g20
I1
sg28
Nsg29
Nsg30
Nsbsg31
I2
sg32
F2.0
sbs(g10
g468
tp1008
g0
(g15
g2
Ntp1009
Rp1010
(dp1011
g19
F0.5
sg20
I1
sg21
g0
(g22
g23
(dp1012
NI1
stp1013
Rp1014
(dp1015
g20
I1
sg28
Nsg29
Nsg30
Nsbsg31
I2
sg32
F2.0
sbs(g9
g42
tp1016
g0
(g15
g2
Ntp1017
Rp1018
(dp1019
g19
F0.5
sg20
I3
sg21
g0
(g22
g23
(dp1020
NI2
sI01
I1
stp1021
Rp1022
(dp1023
g20
I3
sg28
Nsg29
Nsg30
Nsbsg31
I2
sg32
F4.0
sbs(g9
g183
tp1024
g0
(g15
g2
Ntp1025
Rp1026
(dp1027
g19
F0.5
sg20
I3
sg21
g0
(g22
g23
(dp1028
NI2
sI01
I1
stp1029
Rp1030
(dp1031
g20
I3
sg28
Nsg29
Nsg30
Nsbsg31
I2
sg32
F4.0
sbs(g8
g442
tp1032
g0
(g15
g2
Ntp1033
Rp1034
(dp1035
g19
F0.5
sg20
I3
sg21
g0
(g22
g23
(dp1036
NI3
stp1037
Rp1038
(dp1039
g20
I3
sg28
Nsg29
Nsg30
Nsbsg31
I2
sg32
F4.0
sbs(g9
g416
tp1040
g0
(g15
g2
Ntp1041
Rp1042
(dp1043
g19
F0.5
sg20
I3
sg21
g0
(g22
g23
(dp1044
NI3
stp1045
Rp1046
(dp1047
g20
I3
sg28
Nsg29
Nsg30
Nsbsg31
I2
sg32
F4.0
sbs(g10
g236
tp1048
g0
(g15
g2
Ntp1049
Rp1050
(dp1051
g19
F0.5
sg20
I1
sg21
g0
(g22
g23
(dp1052
NI1
stp1053
Rp1054
(dp1055
g20
I1
sg28
Nsg29
Nsg30
Nsbsg31
I2
sg32
F2.0
sbs(g9
g837
tp1056
g0
(g15
g2
Ntp1057
Rp1058
(dp1059
g19
F0.5
sg20
I3
sg21
g0
(g22
g23
(dp1060
NI3
stp1061
Rp1062
(dp1063
g20
I3
sg28
Nsg29
Nsg30
Nsbsg31
I2
sg32
F4.0
sbs(g8
g391
tp1064
g0
(g15
g2
Ntp1065
Rp1066
(dp1067
g19
F0.5
sg20
I3
sg21
g0
(g22
g23
(dp1068
NI3
stp1069
Rp1070
(dp1071
g20
I3
sg28
Nsg29
Nsg30
Nsbsg31
I2
sg32
F4.0
sbs(g8
g520
tp1072
g0
(g15
g2
Ntp1073
Rp1074
(dp1075
g19
F0.5
sg20
I3
sg21
g0
(g22
g23
(dp1076
NI3
stp1077
Rp1078
(dp1079
g20
I3
sg28
Nsg29
Nsg30
Nsbsg31
I2
sg32
F4.0
sbs(g9
g442
tp1080
g0
(g15
g2
Ntp1081
Rp1082
(dp1083
g19
F0.5
sg20
I3
sg21
g0
(g22
g23
(dp1084
NI3
stp1085
Rp1086
(dp1087
g20
I3
sg28
Nsg29
Nsg30
Nsbsg31
I2
sg32
F4.0
sbs(g10
g271
tp1088
g0
(g15
g2
Ntp1089
Rp1090
(dp1091
g19
F0.5
sg20
I1
sg21
g0
(g22
g23
(dp1092
NI1
stp1093
Rp1094
(dp1095
g20
I1
sg28
Nsg29
Nsg30
Nsbsg31
I2
sg32
F2.0
sbs(g10
g348
tp1096
g0
(g15
g2
Ntp1097
Rp1098
(dp1099
g19
F0.5
sg20
I1
sg21
g0
(g22
g23
(dp1100
NI1
stp1101
Rp1102
(dp1103
g20
I1
sg28
Nsg29
Nsg30
Nsbsg31
I2
sg32
F2.0
sbs(g9
g468
tp1104
g0
(g15
g2
Ntp1105
Rp1106
(dp1107
g19
F0.5
sg20
I3
sg21
g0
(g22
g23
(dp1108
NI3
stp1109
Rp1110
(dp1111
g20
I3
sg28
Nsg29
Nsg30
Nsbsg31
I2
sg32
F4.0
sbs(g10
g739
tp1112
g0
(g15
g2
Ntp1113
Rp1114
(dp1115
g19
F0.5
sg20
I1
sg21
g0
(g22
g23
(dp1116
NI1
stp1117
Rp1118
(dp1119
g20
I1
sg28
Nsg29
Nsg30
Nsbsg31
I2
sg32
F2.0
sbs(g8
g42
tp1120
g0
(g15
g2
Ntp1121
Rp1122
(dp1123
g19
F0.5
sg20
I3
sg21
g0
(g22
g23
(dp1124
NI3
stp1125
Rp1126
(dp1127
g20
I3
sg28
Nsg29
Nsg30
Nsbsg31
I2
sg32
F4.0
sbs(g8
V_grise
p1128
tp1129
g0
(g15
g2
Ntp1130
Rp1131
(dp1132
g19
F0.5
sg20
I3
sg21
g0
(g22
g23
(dp1133
NI3
stp1134
Rp1135
(dp1136
g20
I3
sg28
Nsg29
Nsg30
Nsbsg31
I2
sg32
F4.0
sbs(g10
g1128
tp1137
g0
(g15
g2
Ntp1138
Rp1139
(dp1140
g19
F0.5
sg20
I1
sg21
g0
(g22
g23
(dp1141
NI1
stp1142
Rp1143
(dp1144
g20
I1
sg28
Nsg29
Nsg30
Nsbsg31
I2
sg32
F2.0
sbs(g8
Vweek
p1145
tp1146
g0
(g15
g2
Ntp1147
Rp1148
(dp1149
g19
F0.5
sg20
I3
sg21
g0
(g22
g23
(dp1150
NI2
sI01
I1
stp1151
Rp1152
(dp1153
g20
I3
sg28
Nsg29
Nsg30
Nsbsg31
I2
sg32
F4.0
sbs(g8
g271
tp1154
g0
(g15
g2
Ntp1155
Rp1156
(dp1157
g19
F0.5
sg20
I3
sg21
g0
(g22
g23
(dp1158
NI2
sI01
I1
stp1159
Rp1160
(dp1161
g20
I3
sg28
Nsg29
Nsg30
Nsbsg31
I2
sg32
F4.0
sbs(g10
g280
tp1162
g0
(g15
g2
Ntp1163
Rp1164
(dp1165
g19
F0.5
sg20
I1
sg21
g0
(g22
g23
(dp1166
NI1
stp1167
Rp1168
(dp1169
g20
I1
sg28
Nsg29
Nsg30
Nsbsg31
I2
sg32
F2.0
sbs(g10
g391
tp1170
g0
(g15
g2
Ntp1171
Rp1172
(dp1173
g19
F0.5
sg20
I1
sg21
g0
(g22
g23
(dp1174
NI1
stp1175
Rp1176
(dp1177
g20
I1
sg28
Nsg29
Nsg30
Nsbsg31
I2
sg32
F2.0
sbs(g9
g629
tp1178
g0
(g15
g2
Ntp1179
Rp1180
(dp1181
g19
F0.5
sg20
I3
sg21
g0
(g22
g23
(dp1182
NI2
sI01
I1
stp1183
Rp1184
(dp1185
g20
I3
sg28
Nsg29
Nsg30
Nsbsg31
I2
sg32
F4.0
sbs(g9
g1128
tp1186
g0
(g15
g2
Ntp1187
Rp1188
(dp1189
g19
F0.5
sg20
I3
sg21
g0
(g22
g23
(dp1190
NI2
sI01
I1
stp1191
Rp1192
(dp1193
g20
I3
sg28
Nsg29
Nsg30
Nsbsg31
I2
sg32
F4.0
sbs(g8
g714
tp1194
g0
(g15
g2
Ntp1195
Rp1196
(dp1197
g19
F0.5
sg20
I3
sg21
g0
(g22
g23
(dp1198
NI3
stp1199
Rp1200
(dp1201
g20
I3
sg28
Nsg29
Nsg30
Nsbsg31
I2
sg32
F4.0
sbs(g9
g739
tp1202
g0
(g15
g2
Ntp1203
Rp1204
(dp1205
g19
F0.5
sg20
I3
sg21
g0
(g22
g23
(dp1206
NI2
sI01
I1
stp1207
Rp1208
(dp1209
g20
I3
sg28
Nsg29
Nsg30
Nsbsg31
I2
sg32
F4.0
sbs(g9
g210
tp1210
g0
(g15
g2
Ntp1211
Rp1212
(dp1213
g19
F0.5
sg20
I3
sg21
g0
(g22
g23
(dp1214
NI2
sI01
I1
stp1215
Rp1216
(dp1217
g20
I3
sg28
Nsg29
Nsg30
Nsbsg31
I2
sg32
F4.0
sbs(g10
g696
tp1218
g0
(g15
g2
Ntp1219
Rp1220
(dp1221
g19
F0.5
sg20
I1
sg21
g0
(g22
g23
(dp1222
NI1
stp1223
Rp1224
(dp1225
g20
I1
sg28
Nsg29
Nsg30
Nsbsg31
I2
sg32
F2.0
sbs(g10
g219
tp1226
g0
(g15
g2
Ntp1227
Rp1228
(dp1229
g19
F0.5
sg20
I1
sg21
g0
(g22
g23
(dp1230
NI1
stp1231
Rp1232
(dp1233
g20
I1
sg28
Nsg29
Nsg30
Nsbsg31
I2
sg32
F2.0
sbs(g10
g494
tp1234
g0
(g15
g2
Ntp1235
Rp1236
(dp1237
g19
F0.5
sg20
I1
sg21
g0
(g22
g23
(dp1238
NI1
stp1239
Rp1240
(dp1241
g20
I1
sg28
Nsg29
Nsg30
Nsbsg31
I2
sg32
F2.0
sbs(g10
g105
tp1242
g0
(g15
g2
Ntp1243
Rp1244
(dp1245
g19
F0.5
sg20
I1
sg21
g0
(g22
g23
(dp1246
NI1
stp1247
Rp1248
(dp1249
g20
I1
sg28
Nsg29
Nsg30
Nsbsg31
I2
sg32
F2.0
sbs(g10
g330
tp1250
g0
(g15
g2
Ntp1251
Rp1252
(dp1253
g19
F0.5
sg20
I1
sg21
g0
(g22
g23
(dp1254
NI1
stp1255
Rp1256
(dp1257
g20
I1
sg28
Nsg29
Nsg30
Nsbsg31
I2
sg32
F2.0
sbs(g10
g183
tp1258
g0
(g15
g2
Ntp1259
Rp1260
(dp1261
g19
F0.5
sg20
I1
sg21
g0
(g22
g23
(dp1262
NI1
stp1263
Rp1264
(dp1265
g20
I1
sg28
Nsg29
Nsg30
Nsbsg31
I2
sg32
F2.0
sbs(g10
g705
tp1266
g0
(g15
g2
Ntp1267
Rp1268
(dp1269
g19
F0.5
sg20
I1
sg21
g0
(g22
g23
(dp1270
NI1
stp1271
Rp1272
(dp1273
g20
I1
sg28
Nsg29
Nsg30
Nsbsg31
I2
sg32
F2.0
sbs(g9
Vweek
p1274
tp1275
g0
(g15
g2
Ntp1276
Rp1277
(dp1278
g19
F0.5
sg20
I3
sg21
g0
(g22
g23
(dp1279
NI3
stp1280
Rp1281
(dp1282
g20
I3
sg28
Nsg29
Nsg30
Nsbsg31
I2
sg32
F4.0
sbs(g9
g714
tp1283
g0
(g15
g2
Ntp1284
Rp1285
(dp1286
g19
F0.5
sg20
I3
sg21
g0
(g22
g23
(dp1287
NI2
sI01
I1
stp1288
Rp1289
(dp1290
g20
I3
sg28
Nsg29
Nsg30
Nsbsg31
I2
sg32
F4.0
sbs(g9
g696
tp1291
g0
(g15
g2
Ntp1292
Rp1293
(dp1294
g19
F0.5
sg20
I3
sg21
g0
(g22
g23
(dp1295
NI3
stp1296
Rp1297
(dp1298
g20
I3
sg28
Nsg29
Nsg30
Nsbsg31
I2
sg32
F4.0
sbs(g9
g433
tp1299
g0
(g15
g2
Ntp1300
Rp1301
(dp1302
g19
F0.5
sg20
I3
sg21
g0
(g22
g23
(dp1303
NI3
stp1304
Rp1305
(dp1306
g20
I3
sg28
Nsg29
Nsg30
Nsbsg31
I2
sg32
F4.0
sbs(g9
g219
tp1307
g0
(g15
g2
Ntp1308
Rp1309
(dp1310
g19
F0.5
sg20
I3
sg21
g0
(g22
g23
(dp1311
NI3
stp1312
Rp1313
(dp1314
g20
I3
sg28
Nsg29
Nsg30
Nsbsg31
I2
sg32
F4.0
sbs(g9
g477
tp1315
g0
(g15
g2
Ntp1316
Rp1317
(dp1318
g19
F0.5
sg20
I3
sg21
g0
(g22
g23
(dp1319
NI3
stp1320
Rp1321
(dp1322
g20
I3
sg28
Nsg29
Nsg30
Nsbsg31
I2
sg32
F4.0
sbs(g10
g837
tp1323
g0
(g15
g2
Ntp1324
Rp1325
(dp1326
g19
F0.5
sg20
I1
sg21
g0
(g22
g23
(dp1327
NI1
stp1328
Rp1329
(dp1330
g20
I1
sg28
Nsg29
Nsg30
Nsbsg31
I2
sg32
F2.0
sbs(g10
g51
tp1331
g0
(g15
g2
Ntp1332
Rp1333
(dp1334
g19
F0.5
sg20
I1
sg21
g0
(g22
g23
(dp1335
I01
I1
stp1336
Rp1337
(dp1338
g20
I1
sg28
Nsg29
Nsg30
Nsbsg31
I2
sg32
F2.0
sbs(g10
g433
tp1339
g0
(g15
g2
Ntp1340
Rp1341
(dp1342
g19
F0.5
sg20
I1
sg21
g0
(g22
g23
(dp1343
NI1
stp1344
Rp1345
(dp1346
g20
I1
sg28
Nsg29
Nsg30
Nsbsg31
I2
sg32
F2.0
sbs(g10
g139
tp1347
g0
(g15
g2
Ntp1348
Rp1349
(dp1350
g19
F0.5
sg20
I1
sg21
g0
(g22
g23
(dp1351
I01
I1
stp1352
Rp1353
(dp1354
g20
I1
sg28
Nsg29
Nsg30
Nsbsg31
I2
sg32
F2.0
sbs(g10
g69
tp1355
g0
(g15
g2
Ntp1356
Rp1357
(dp1358
g19
F0.5
sg20
I1
sg21
g0
(g22
g23
(dp1359
NI1
stp1360
Rp1361
(dp1362
g20
I1
sg28
Nsg29
Nsg30
Nsbsg31
I2
sg32
F2.0
sbs(g10
g87
tp1363
g0
(g15
g2
Ntp1364
Rp1365
(dp1366
g19
F0.5
sg20
I1
sg21
g0
(g22
g23
(dp1367
NI1
stp1368
Rp1369
(dp1370
g20
I1
sg28
Nsg29
Nsg30
Nsbsg31
I2
sg32
F2.0
sbs(g10
g1274
tp1371
g0
(g15
g2
Ntp1372
Rp1373
(dp1374
g19
F0.5
sg20
I1
sg21
g0
(g22
g23
(dp1375
I01
I1
stp1376
Rp1377
(dp1378
g20
I1
sg28
Nsg29
Nsg30
Nsbsg31
I2
sg32
F2.0
sbs(g10
g529
tp1379
g0
(g15
g2
Ntp1380
Rp1381
(dp1382
g19
F0.5
sg20
I1
sg21
g0
(g22
g23
(dp1383
NI1
stp1384
Rp1385
(dp1386
g20
I1
sg28
Nsg29
Nsg30
Nsbsg31
I2
sg32
F2.0
sbs(g8
g33
tp1387
g0
(g15
g2
Ntp1388
Rp1389
(dp1390
g19
F0.5
sg20
I3
sg21
g0
(g22
g23
(dp1391
NI2
sI01
I1
stp1392
Rp1393
(dp1394
g20
I3
sg28
Nsg29
Nsg30
Nsbsg31
I2
sg32
F4.0
sbs(g9
g670
tp1395
g0
(g15
g2
Ntp1396
Rp1397
(dp1398
g19
F0.5
sg20
I3
sg21
g0
(g22
g23
(dp1399
NI3
stp1400
Rp1401
(dp1402
g20
I3
sg28
Nsg29
Nsg30
Nsbsg31
I2
sg32
F4.0
sbssS'_label_probdist'
p1403
g0
(g15
g2
Ntp1404
Rp1405
(dp1406
g19
F0.5
sg20
I7
sg21
g0
(g22
g23
(dp1407
g9
I3
sg10
I1
sg8
I3
stp1408
Rp1409
(dp1410
g20
I7
sg28
Nsg29
(lp1411
(g8
I3
tp1412
a(g9
I3
tp1413
a(g10
I1
tp1414
asg30
Nsbsg31
I3
sg32
F8.5
sbsb.