ccopy_reg
_reconstructor
p0
(cnltk.classify.naivebayes
NaiveBayesClassifier
p1
c__builtin__
object
p2
Ntp3
Rp4
(dp5
S'_labels'
p6
(lp7
Vclass2
p8
aVclass1
p9
asS'_feature_probdist'
p10
(dp11
(g8
Vguide
p12
tp13
g0
(cnltk.probability
ELEProbDist
p14
g2
Ntp15
Rp16
(dp17
S'_gamma'
p18
F0.5
sS'_N'
p19
I4
sS'_freqdist'
p20
g0
(cnltk.probability
FreqDist
p21
c__builtin__
dict
p22
(dp23
I01
I2
sNI2
stp24
Rp25
(dp26
g19
I4
sS'_max_cache'
p27
NsS'_item_cache'
p28
NsS'_Nr_cache'
p29
NsbsS'_bins'
p30
I2
sS'_divisor'
p31
F5.0
sbs(g8
Vdvds
p32
tp33
g0
(g14
g2
Ntp34
Rp35
(dp36
g18
F0.5
sg19
I4
sg20
g0
(g21
g22
(dp37
NI4
stp38
Rp39
(dp40
g19
I4
sg27
Nsg28
Nsg29
Nsbsg30
I2
sg31
F5.0
sbs(g8
Vyvessaintlaurent
p41
tp42
g0
(g14
g2
Ntp43
Rp44
(dp45
g18
F0.5
sg19
I4
sg20
g0
(g21
g22
(dp46
NI4
stp47
Rp48
(dp49
g19
I4
sg27
Nsg28
Nsg29
Nsbsg30
I2
sg31
F5.0
sbs(g9
Vgermany
p50
tp51
g0
(g14
g2
Ntp52
Rp53
(dp54
g18
F0.5
sg19
I2
sg20
g0
(g21
g22
(dp55
I01
I1
sNI1
stp56
Rp57
(dp58
g19
I2
sg27
Nsg28
Nsg29
Nsbsg30
I2
sg31
F3.0
sbs(g9
g41
tp59
g0
(g14
g2
Ntp60
Rp61
(dp62
g18
F0.5
sg19
I2
sg20
g0
(g21
g22
(dp63
I01
I1
sNI1
stp64
Rp65
(dp66
g19
I2
sg27
Nsg28
Nsg29
Nsbsg30
I2
sg31
F3.0
sbs(g8
Vseptember
p67
tp68
g0
(g14
g2
Ntp69
Rp70
(dp71
g18
F0.5
sg19
I4
sg20
g0
(g21
g22
(dp72
I01
I1
sNI3
stp73
Rp74
(dp75
g19
I4
sg27
Nsg28
Nsg29
Nsbsg30
I2
sg31
F5.0
sbs(g8
Vworldcup2014
p76
tp77
g0
(g14
g2
Ntp78
Rp79
(dp80
g18
F0.5
sg19
I4
sg20
g0
(g21
g22
(dp81
NI4
stp82
Rp83
(dp84
g19
I4
sg27
Nsg28
Nsg29
Nsbsg30
I2
sg31
F5.0
sbs(g9
Vyoszsasi1r
p85
tp86
g0
(g14
g2
Ntp87
Rp88
(dp89
g18
F0.5
sg19
I2
sg20
g0
(g21
g22
(dp90
NI2
stp91
Rp92
(dp93
g19
I2
sg27
Nsg28
Nsg29
Nsbsg30
I2
sg31
F3.0
sbs(g9
Vasked
p94
tp95
g0
(g14
g2
Ntp96
Rp97
(dp98
g18
F0.5
sg19
I2
sg20
g0
(g21
g22
(dp99
NI2
stp100
Rp101
(dp102
g19
I2
sg27
Nsg28
Nsg29
Nsbsg30
I2
sg31
F3.0
sbs(g9
Vzrblmsv3wp
p103
tp104
g0
(g14
g2
Ntp105
Rp106
(dp107
g18
F0.5
sg19
I2
sg20
g0
(g21
g22
(dp108
NI2
stp109
Rp110
(dp111
g19
I2
sg27
Nsg28
Nsg29
Nsbsg30
I2
sg31
F3.0
sbs(g9
Vstrong
p112
tp113
g0
(g14
g2
Ntp114
Rp115
(dp116
g18
F0.5
sg19
I2
sg20
g0
(g21
g22
(dp117
I01
I1
sNI1
stp118
Rp119
(dp120
g19
I2
sg27
Nsg28
Nsg29
Nsbsg30
I2
sg31
F3.0
sbs(g9
Vdebuting
p121
tp122
g0
(g14
g2
Ntp123
Rp124
(dp125
g18
F0.5
sg19
I2
sg20
g0
(g21
g22
(dp126
NI2
stp127
Rp128
(dp129
g19
I2
sg27
Nsg28
Nsg29
Nsbsg30
I2
sg31
F3.0
sbs(g9
Vthehooliganfactory
p130
tp131
g0
(g14
g2
Ntp132
Rp133
(dp134
g18
F0.5
sg19
I2
sg20
g0
(g21
g22
(dp135
I01
I1
sNI1
stp136
Rp137
(dp138
g19
I2
sg27
Nsg28
Nsg29
Nsbsg30
I2
sg31
F3.0
sbs(g9
Vjungle
p139
tp140
g0
(g14
g2
Ntp141
Rp142
(dp143
g18
F0.5
sg19
I2
sg20
g0
(g21
g22
(dp144
NI2
stp145
Rp146
(dp147
g19
I2
sg27
Nsg28
Nsg29
Nsbsg30
I2
sg31
F3.0
sbs(g8
g85
tp148
g0
(g14
g2
Ntp149
Rp150
(dp151
g18
F0.5
sg19
I4
sg20
g0
(g21
g22
(dp152
I01
I1
sNI3
stp153
Rp154
(dp155
g19
I4
sg27
Nsg28
Nsg29
Nsbsg30
I2
sg31
F5.0
sbs(g9
Vjasonmraz
p156
tp157
g0
(g14
g2
Ntp158
Rp159
(dp160
g18
F0.5
sg19
I2
sg20
g0
(g21
g22
(dp161
NI2
stp162
Rp163
(dp164
g19
I2
sg27
Nsg28
Nsg29
Nsbsg30
I2
sg31
F3.0
sbs(g8
Vlater
p165
tp166
g0
(g14
g2
Ntp167
Rp168
(dp169
g18
F0.5
sg19
I4
sg20
g0
(g21
g22
(dp170
I01
I1
sNI3
stp171
Rp172
(dp173
g19
I4
sg27
Nsg28
Nsg29
Nsbsg30
I2
sg31
F5.0
sbs(g9
g32
tp174
g0
(g14
g2
Ntp175
Rp176
(dp177
g18
F0.5
sg19
I2
sg20
g0
(g21
g22
(dp178
I01
I1
sNI1
stp179
Rp180
(dp181
g19
I2
sg27
Nsg28
Nsg29
Nsbsg30
I2
sg31
F3.0
sbs(g8
V://
p182
tp183
g0
(g14
g2
Ntp184
Rp185
(dp186
g18
F0.5
sg19
I4
sg20
g0
(g21
g22
(dp187
I01
I4
stp188
Rp189
(dp190
g19
I4
sg27
Nsg28
Nsg29
Nsbsg30
I2
sg31
F5.0
sbs(g8
Vgive
p191
tp192
g0
(g14
g2
Ntp193
Rp194
(dp195
g18
F0.5
sg19
I4
sg20
g0
(g21
g22
(dp196
I01
I1
sNI3
stp197
Rp198
(dp199
g19
I4
sg27
Nsg28
Nsg29
Nsbsg30
I2
sg31
F5.0
sbs(g9
Vsongs
p200
tp201
g0
(g14
g2
Ntp202
Rp203
(dp204
g18
F0.5
sg19
I2
sg20
g0
(g21
g22
(dp205
NI2
stp206
Rp207
(dp208
g19
I2
sg27
Nsg28
Nsg29
Nsbsg30
I2
sg31
F3.0
sbs(g8
g103
tp209
g0
(g14
g2
Ntp210
Rp211
(dp212
g18
F0.5
sg19
I4
sg20
g0
(g21
g22
(dp213
I01
I1
sNI3
stp214
Rp215
(dp216
g19
I4
sg27
Nsg28
Nsg29
Nsbsg30
I2
sg31
F5.0
sbs(g9
Vtrack
p217
tp218
g0
(g14
g2
Ntp219
Rp220
(dp221
g18
F0.5
sg19
I2
sg20
g0
(g21
g22
(dp222
NI2
stp223
Rp224
(dp225
g19
I2
sg27
Nsg28
Nsg29
Nsbsg30
I2
sg31
F3.0
sbs(g9
g191
tp226
g0
(g14
g2
Ntp227
Rp228
(dp229
g18
F0.5
sg19
I2
sg20
g0
(g21
g22
(dp230
NI2
stp231
Rp232
(dp233
g19
I2
sg27
Nsg28
Nsg29
Nsbsg30
I2
sg31
F3.0
sbs(g9
g76
tp234
g0
(g14
g2
Ntp235
Rp236
(dp237
g18
F0.5
sg19
I2
sg20
g0
(g21
g22
(dp238
I01
I1
sNI1
stp239
Rp240
(dp241
g19
I2
sg27
Nsg28
Nsg29
Nsbsg30
I2
sg31
F3.0
sbs(g9
Vundertheskin
p242
tp243
g0
(g14
g2
Ntp244
Rp245
(dp246
g18
F0.5
sg19
I2
sg20
g0
(g21
g22
(dp247
I01
I1
sNI1
stp248
Rp249
(dp250
g19
I2
sg27
Nsg28
Nsg29
Nsbsg30
I2
sg31
F3.0
sbs(g8
g130
tp251
g0
(g14
g2
Ntp252
Rp253
(dp254
g18
F0.5
sg19
I4
sg20
g0
(g21
g22
(dp255
NI4
stp256
Rp257
(dp258
g19
I4
sg27
Nsg28
Nsg29
Nsbsg30
I2
sg31
F5.0
sbs(g9
Valbums
p259
tp260
g0
(g14
g2
Ntp261
Rp262
(dp263
g18
F0.5
sg19
I2
sg20
g0
(g21
g22
(dp264
NI2
stp265
Rp266
(dp267
g19
I2
sg27
Nsg28
Nsg29
Nsbsg30
I2
sg31
F3.0
sbs(g8
g121
tp268
g0
(g14
g2
Ntp269
Rp270
(dp271
g18
F0.5
sg19
I4
sg20
g0
(g21
g22
(dp272
I01
I1
sNI3
stp273
Rp274
(dp275
g19
I4
sg27
Nsg28
Nsg29
Nsbsg30
I2
sg31
F5.0
sbs(g9
Vlondon
p276
tp277
g0
(g14
g2
Ntp278
Rp279
(dp280
g18
F0.5
sg19
I2
sg20
g0
(g21
g22
(dp281
NI2
stp282
Rp283
(dp284
g19
I2
sg27
Nsg28
Nsg29
Nsbsg30
I2
sg31
F3.0
sbs(g9
Vmorrissey
p285
tp286
g0
(g14
g2
Ntp287
Rp288
(dp289
g18
F0.5
sg19
I2
sg20
g0
(g21
g22
(dp290
NI2
stp291
Rp292
(dp293
g19
I2
sg27
Nsg28
Nsg29
Nsbsg30
I2
sg31
F3.0
sbs(g8
g285
tp294
g0
(g14
g2
Ntp295
Rp296
(dp297
g18
F0.5
sg19
I4
sg20
g0
(g21
g22
(dp298
I01
I1
sNI3
stp299
Rp300
(dp301
g19
I4
sg27
Nsg28
Nsg29
Nsbsg30
I2
sg31
F5.0
sbs(g8
Vdetails
p302
tp303
g0
(g14
g2
Ntp304
Rp305
(dp306
g18
F0.5
sg19
I4
sg20
g0
(g21
g22
(dp307
I01
I1
sNI3
stp308
Rp309
(dp310
g19
I4
sg27
Nsg28
Nsg29
Nsbsg30
I2
sg31
F5.0
sbs(g9
Vresults
p311
tp312
g0
(g14
g2
Ntp313
Rp314
(dp315
g18
F0.5
sg19
I2
sg20
g0
(g21
g22
(dp316
I01
I1
sNI1
stp317
Rp318
(dp319
g19
I2
sg27
Nsg28
Nsg29
Nsbsg30
I2
sg31
F3.0
sbs(g8
V2014
p320
tp321
g0
(g14
g2
Ntp322
Rp323
(dp324
g18
F0.5
sg19
I4
sg20
g0
(g21
g22
(dp325
NI4
stp326
Rp327
(dp328
g19
I4
sg27
Nsg28
Nsg29
Nsbsg30
I2
sg31
F5.0
sbs(g8
Vvlhnxwo4js
p329
tp330
g0
(g14
g2
Ntp331
Rp332
(dp333
g18
F0.5
sg19
I4
sg20
g0
(g21
g22
(dp334
I01
I1
sNI3
stp335
Rp336
(dp337
g19
I4
sg27
Nsg28
Nsg29
Nsbsg30
I2
sg31
F5.0
sbs(g9
g165
tp338
g0
(g14
g2
Ntp339
Rp340
(dp341
g18
F0.5
sg19
I2
sg20
g0
(g21
g22
(dp342
NI2
stp343
Rp344
(dp345
g19
I2
sg27
Nsg28
Nsg29
Nsbsg30
I2
sg31
F3.0
sbs(g9
g12
tp346
g0
(g14
g2
Ntp347
Rp348
(dp349
g18
F0.5
sg19
I2
sg20
g0
(g21
g22
(dp350
NI2
stp351
Rp352
(dp353
g19
I2
sg27
Nsg28
Nsg29
Nsbsg30
I2
sg31
F3.0
sbs(g8
Vcorrect
p354
tp355
g0
(g14
g2
Ntp356
Rp357
(dp358
g18
F0.5
sg19
I4
sg20
g0
(g21
g22
(dp359
NI4
stp360
Rp361
(dp362
g19
I4
sg27
Nsg28
Nsg29
Nsbsg30
I2
sg31
F5.0
sbs(g9
g329
tp363
g0
(g14
g2
Ntp364
Rp365
(dp366
g18
F0.5
sg19
I2
sg20
g0
(g21
g22
(dp367
NI2
stp368
Rp369
(dp370
g19
I2
sg27
Nsg28
Nsg29
Nsbsg30
I2
sg31
F3.0
sbs(g9
V://
p371
tp372
g0
(g14
g2
Ntp373
Rp374
(dp375
g18
F0.5
sg19
I2
sg20
g0
(g21
g22
(dp376
I01
I2
stp377
Rp378
(dp379
g19
I2
sg27
Nsg28
Nsg29
Nsbsg30
I2
sg31
F3.0
sbs(g9
Vextensive
p380
tp381
g0
(g14
g2
Ntp382
Rp383
(dp384
g18
F0.5
sg19
I2
sg20
g0
(g21
g22
(dp385
NI2
stp386
Rp387
(dp388
g19
I2
sg27
Nsg28
Nsg29
Nsbsg30
I2
sg31
F3.0
sbs(g8
Vlots
p389
tp390
g0
(g14
g2
Ntp391
Rp392
(dp393
g18
F0.5
sg19
I4
sg20
g0
(g21
g22
(dp394
NI4
stp395
Rp396
(dp397
g19
I4
sg27
Nsg28
Nsg29
Nsbsg30
I2
sg31
F5.0
sbs(g8
g259
tp398
g0
(g14
g2
Ntp399
Rp400
(dp401
g18
F0.5
sg19
I4
sg20
g0
(g21
g22
(dp402
I01
I1
sNI3
stp403
Rp404
(dp405
g19
I4
sg27
Nsg28
Nsg29
Nsbsg30
I2
sg31
F5.0
sbs(g8
g311
tp406
g0
(g14
g2
Ntp407
Rp408
(dp409
g18
F0.5
sg19
I4
sg20
g0
(g21
g22
(dp410
NI4
stp411
Rp412
(dp413
g19
I4
sg27
Nsg28
Nsg29
Nsbsg30
I2
sg31
F5.0
sbs(g9
Vannounced
p414
tp415
g0
(g14
g2
Ntp416
Rp417
(dp418
g18
F0.5
sg19
I2
sg20
g0
(g21
g22
(dp419
NI2
stp420
Rp421
(dp422
g19
I2
sg27
Nsg28
Nsg29
Nsbsg30
I2
sg31
F3.0
sbs(g9
Vor7ewbjrme
p423
tp424
g0
(g14
g2
Ntp425
Rp426
(dp427
g18
F0.5
sg19
I2
sg20
g0
(g21
g22
(dp428
I01
I1
sNI1
stp429
Rp430
(dp431
g19
I2
sg27
Nsg28
Nsg29
Nsbsg30
I2
sg31
F3.0
sbs(g8
g217
tp432
g0
(g14
g2
Ntp433
Rp434
(dp435
g18
F0.5
sg19
I4
sg20
g0
(g21
g22
(dp436
I01
I1
sNI3
stp437
Rp438
(dp439
g19
I4
sg27
Nsg28
Nsg29
Nsbsg30
I2
sg31
F5.0
sbs(g9
Vfallingskies
p440
tp441
g0
(g14
g2
Ntp442
Rp443
(dp444
g18
F0.5
sg19
I2
sg20
g0
(g21
g22
(dp445
I01
I1
sNI1
stp446
Rp447
(dp448
g19
I2
sg27
Nsg28
Nsg29
Nsbsg30
I2
sg31
F3.0
sbs(g8
g276
tp449
g0
(g14
g2
Ntp450
Rp451
(dp452
g18
F0.5
sg19
I4
sg20
g0
(g21
g22
(dp453
I01
I1
sNI3
stp454
Rp455
(dp456
g19
I4
sg27
Nsg28
Nsg29
Nsbsg30
I2
sg31
F5.0
sbs(g9
g320
tp457
g0
(g14
g2
Ntp458
Rp459
(dp460
g18
F0.5
sg19
I2
sg20
g0
(g21
g22
(dp461
I01
I1
sNI1
stp462
Rp463
(dp464
g19
I2
sg27
Nsg28
Nsg29
Nsbsg30
I2
sg31
F3.0
sbs(g8
Vshow
p465
tp466
g0
(g14
g2
Ntp467
Rp468
(dp469
g18
F0.5
sg19
I4
sg20
g0
(g21
g22
(dp470
I01
I1
sNI3
stp471
Rp472
(dp473
g19
I4
sg27
Nsg28
Nsg29
Nsbsg30
I2
sg31
F5.0
sbs(g8
g242
tp474
g0
(g14
g2
Ntp475
Rp476
(dp477
g18
F0.5
sg19
I4
sg20
g0
(g21
g22
(dp478
NI4
stp479
Rp480
(dp481
g19
I4
sg27
Nsg28
Nsg29
Nsbsg30
I2
sg31
F5.0
sbs(g9
g354
tp482
g0
(g14
g2
Ntp483
Rp484
(dp485
g18
F0.5
sg19
I2
sg20
g0
(g21
g22
(dp486
I01
I1
sNI1
stp487
Rp488
(dp489
g19
I2
sg27
Nsg28
Nsg29
Nsbsg30
I2
sg31
F3.0
sbs(g9
Vthenational
p490
tp491
g0
(g14
g2
Ntp492
Rp493
(dp494
g18
F0.5
sg19
I2
sg20
g0
(g21
g22
(dp495
NI2
stp496
Rp497
(dp498
g19
I2
sg27
Nsg28
Nsg29
Nsbsg30
I2
sg31
F3.0
sbs(g9
g465
tp499
g0
(g14
g2
Ntp500
Rp501
(dp502
g18
F0.5
sg19
I2
sg20
g0
(g21
g22
(dp503
NI2
stp504
Rp505
(dp506
g19
I2
sg27
Nsg28
Nsg29
Nsbsg30
I2
sg31
F3.0
sbs(g8
Vpromised
p507
tp508
g0
(g14
g2
Ntp509
Rp510
(dp511
g18
F0.5
sg19
I4
sg20
g0
(g21
g22
(dp512
I01
I1
sNI3
stp513
Rp514
(dp515
g19
I4
sg27
Nsg28
Nsg29
Nsbsg30
I2
sg31
F5.0
sbs(g9
g302
tp516
g0
(g14
g2
Ntp517
Rp518
(dp519
g18
F0.5
sg19
I2
sg20
g0
(g21
g22
(dp520
NI2
stp521
Rp522
(dp523
g19
I2
sg27
Nsg28
Nsg29
Nsbsg30
I2
sg31
F3.0
sbs(g9
Vengine
p524
tp525
g0
(g14
g2
Ntp526
Rp527
(dp528
g18
F0.5
sg19
I2
sg20
g0
(g21
g22
(dp529
I01
I1
sNI1
stp530
Rp531
(dp532
g19
I2
sg27
Nsg28
Nsg29
Nsbsg30
I2
sg31
F3.0
sbs(g9
Vhttp
p533
tp534
g0
(g14
g2
Ntp535
Rp536
(dp537
g18
F0.5
sg19
I2
sg20
g0
(g21
g22
(dp538
I01
I2
stp539
Rp540
(dp541
g19
I2
sg27
Nsg28
Nsg29
Nsbsg30
I2
sg31
F3.0
sbs(g9
Vprediction
p542
tp543
g0
(g14
g2
Ntp544
Rp545
(dp546
g18
F0.5
sg19
I2
sg20
g0
(g21
g22
(dp547
I01
I1
sNI1
stp548
Rp549
(dp550
g19
I2
sg27
Nsg28
Nsg29
Nsbsg30
I2
sg31
F3.0
sbs(g8
Vnew
p551
tp552
g0
(g14
g2
Ntp553
Rp554
(dp555
g18
F0.5
sg19
I4
sg20
g0
(g21
g22
(dp556
I01
I2
sNI2
stp557
Rp558
(dp559
g19
I4
sg27
Nsg28
Nsg29
Nsbsg30
I2
sg31
F5.0
sbs(g9
Vcompletesurrender
p560
tp561
g0
(g14
g2
Ntp562
Rp563
(dp564
g18
F0.5
sg19
I2
sg20
g0
(g21
g22
(dp565
NI2
stp566
Rp567
(dp568
g19
I2
sg27
Nsg28
Nsg29
Nsbsg30
I2
sg31
F3.0
sbs(g8
Vyear
p569
tp570
g0
(g14
g2
Ntp571
Rp572
(dp573
g18
F0.5
sg19
I4
sg20
g0
(g21
g22
(dp574
I01
I1
sNI3
stp575
Rp576
(dp577
g19
I4
sg27
Nsg28
Nsg29
Nsbsg30
I2
sg31
F5.0
sbs(g8
g156
tp578
g0
(g14
g2
Ntp579
Rp580
(dp581
g18
F0.5
sg19
I4
sg20
g0
(g21
g22
(dp582
I01
I1
sNI3
stp583
Rp584
(dp585
g19
I4
sg27
Nsg28
Nsg29
Nsbsg30
I2
sg31
F5.0
sbs(g8
Vhuge
p586
tp587
g0
(g14
g2
Ntp588
Rp589
(dp590
g18
F0.5
sg19
I4
sg20
g0
(g21
g22
(dp591
I01
I1
sNI3
stp592
Rp593
(dp594
g19
I4
sg27
Nsg28
Nsg29
Nsbsg30
I2
sg31
F5.0
sbs(g8
g524
tp595
g0
(g14
g2
Ntp596
Rp597
(dp598
g18
F0.5
sg19
I4
sg20
g0
(g21
g22
(dp599
NI4
stp600
Rp601
(dp602
g19
I4
sg27
Nsg28
Nsg29
Nsbsg30
I2
sg31
F5.0
sbs(g8
g542
tp603
g0
(g14
g2
Ntp604
Rp605
(dp606
g18
F0.5
sg19
I4
sg20
g0
(g21
g22
(dp607
NI4
stp608
Rp609
(dp610
g19
I4
sg27
Nsg28
Nsg29
Nsbsg30
I2
sg31
F5.0
sbs(g8
g380
tp611
g0
(g14
g2
Ntp612
Rp613
(dp614
g18
F0.5
sg19
I4
sg20
g0
(g21
g22
(dp615
I01
I1
sNI3
stp616
Rp617
(dp618
g19
I4
sg27
Nsg28
Nsg29
Nsbsg30
I2
sg31
F5.0
sbs(g9
g586
tp619
g0
(g14
g2
Ntp620
Rp621
(dp622
g18
F0.5
sg19
I2
sg20
g0
(g21
g22
(dp623
NI2
stp624
Rp625
(dp626
g19
I2
sg27
Nsg28
Nsg29
Nsbsg30
I2
sg31
F3.0
sbs(g8
Vgame
p627
tp628
g0
(g14
g2
Ntp629
Rp630
(dp631
g18
F0.5
sg19
I4
sg20
g0
(g21
g22
(dp632
NI4
stp633
Rp634
(dp635
g19
I4
sg27
Nsg28
Nsg29
Nsbsg30
I2
sg31
F5.0
sbs(g8
Vhttp
p636
tp637
g0
(g14
g2
Ntp638
Rp639
(dp640
g18
F0.5
sg19
I4
sg20
g0
(g21
g22
(dp641
I01
I4
stp642
Rp643
(dp644
g19
I4
sg27
Nsg28
Nsg29
Nsbsg30
I2
sg31
F5.0
sbs(g8
g414
tp645
g0
(g14
g2
Ntp646
Rp647
(dp648
g18
F0.5
sg19
I4
sg20
g0
(g21
g22
(dp649
I01
I2
sNI2
stp650
Rp651
(dp652
g19
I4
sg27
Nsg28
Nsg29
Nsbsg30
I2
sg31
F5.0
sbs(g8
Vilcb6xxs3y
p653
tp654
g0
(g14
g2
Ntp655
Rp656
(dp657
g18
F0.5
sg19
I4
sg20
g0
(g21
g22
(dp658
I01
I1
sNI3
stp659
Rp660
(dp661
g19
I4
sg27
Nsg28
Nsg29
Nsbsg30
I2
sg31
F5.0
sbs(g8
g490
tp662
g0
(g14
g2
Ntp663
Rp664
(dp665
g18
F0.5
sg19
I4
sg20
g0
(g21
g22
(dp666
I01
I1
sNI3
stp667
Rp668
(dp669
g19
I4
sg27
Nsg28
Nsg29
Nsbsg30
I2
sg31
F5.0
sbs(g8
g139
tp670
g0
(g14
g2
Ntp671
Rp672
(dp673
g18
F0.5
sg19
I4
sg20
g0
(g21
g22
(dp674
I01
I1
sNI3
stp675
Rp676
(dp677
g19
I4
sg27
Nsg28
Nsg29
Nsbsg30
I2
sg31
F5.0
sbs(g8
Vbwnm3f7t7v
p678
tp679
g0
(g14
g2
Ntp680
Rp681
(dp682
g18
F0.5
sg19
I4
sg20
g0
(g21
g22
(dp683
I01
I1
sNI3
stp684
Rp685
(dp686
g19
I4
sg27
Nsg28
Nsg29
Nsbsg30
I2
sg31
F5.0
sbs(g9
Vnew
p687
tp688
g0
(g14
g2
Ntp689
Rp690
(dp691
g18
F0.5
sg19
I2
sg20
g0
(g21
g22
(dp692
I01
I1
sNI1
stp693
Rp694
(dp695
g19
I2
sg27
Nsg28
Nsg29
Nsbsg30
I2
sg31
F3.0
sbs(g9
g653
tp696
g0
(g14
g2
Ntp697
Rp698
(dp699
g18
F0.5
sg19
I2
sg20
g0
(g21
g22
(dp700
NI2
stp701
Rp702
(dp703
g19
I2
sg27
Nsg28
Nsg29
Nsbsg30
I2
sg31
F3.0
sbs(g9
g507
tp704
g0
(g14
g2
Ntp705
Rp706
(dp707
g18
F0.5
sg19
I2
sg20
g0
(g21
g22
(dp708
NI2
stp709
Rp710
(dp711
g19
I2
sg27
Nsg28
Nsg29
Nsbsg30
I2
sg31
F3.0
sbs(g8
Vtour
p712
tp713
g0
(g14
g2
Ntp714
Rp715
(dp716
g18
F0.5
sg19
I4
sg20
g0
(g21
g22
(dp717
I01
I1
sNI3
stp718
Rp719
(dp720
g19
I4
sg27
Nsg28
Nsg29
Nsbsg30
I2
sg31
F5.0
sbs(g8
g560
tp721
g0
(g14
g2
Ntp722
Rp723
(dp724
g18
F0.5
sg19
I4
sg20
g0
(g21
g22
(dp725
I01
I1
sNI3
stp726
Rp727
(dp728
g19
I4
sg27
Nsg28
Nsg29
Nsbsg30
I2
sg31
F5.0
sbs(g9
g627
tp729
g0
(g14
g2
Ntp730
Rp731
(dp732
g18
F0.5
sg19
I2
sg20
g0
(g21
g22
(dp733
I01
I1
sNI1
stp734
Rp735
(dp736
g19
I2
sg27
Nsg28
Nsg29
Nsbsg30
I2
sg31
F3.0
sbs(g8
g94
tp737
g0
(g14
g2
Ntp738
Rp739
(dp740
g18
F0.5
sg19
I4
sg20
g0
(g21
g22
(dp741
I01
I1
sNI3
stp742
Rp743
(dp744
g19
I4
sg27
Nsg28
Nsg29
Nsbsg30
I2
sg31
F5.0
sbs(g8
g112
tp745
g0
(g14
g2
Ntp746
Rp747
(dp748
g18
F0.5
sg19
I4
sg20
g0
(g21
g22
(dp749
NI4
stp750
Rp751
(dp752
g19
I4
sg27
Nsg28
Nsg29
Nsbsg30
I2
sg31
F5.0
sbs(g9
Vweek
p753
tp754
g0
(g14
g2
Ntp755
Rp756
(dp757
g18
F0.5
sg19
I2
sg20
g0
(g21
g22
(dp758
I01
I1
sNI1
stp759
Rp760
(dp761
g19
I2
sg27
Nsg28
Nsg29
Nsbsg30
I2
sg31
F3.0
sbs(g8
g423
tp762
g0
(g14
g2
Ntp763
Rp764
(dp765
g18
F0.5
sg19
I4
sg20
g0
(g21
g22
(dp766
NI4
stp767
Rp768
(dp769
g19
I4
sg27
Nsg28
Nsg29
Nsbsg30
I2
sg31
F5.0
sbs(g9
g712
tp770
g0
(g14
g2
Ntp771
Rp772
(dp773
g18
F0.5
sg19
I2
sg20
g0
(g21
g22
(dp774
NI2
stp775
Rp776
(dp777
g19
I2
sg27
Nsg28
Nsg29
Nsbsg30
I2
sg31
F3.0
sbs(g9
g569
tp778
g0
(g14
g2
Ntp779
Rp780
(dp781
g18
F0.5
sg19
I2
sg20
g0
(g21
g22
(dp782
NI2
stp783
Rp784
(dp785
g19
I2
sg27
Nsg28
Nsg29
Nsbsg30
I2
sg31
F3.0
sbs(g8
g200
tp786
g0
(g14
g2
Ntp787
Rp788
(dp789
g18
F0.5
sg19
I4
sg20
g0
(g21
g22
(dp790
I01
I1
sNI3
stp791
Rp792
(dp793
g19
I4
sg27
Nsg28
Nsg29
Nsbsg30
I2
sg31
F5.0
sbs(g9
g67
tp794
g0
(g14
g2
Ntp795
Rp796
(dp797
g18
F0.5
sg19
I2
sg20
g0
(g21
g22
(dp798
NI2
stp799
Rp800
(dp801
g19
I2
sg27
Nsg28
Nsg29
Nsbsg30
I2
sg31
F3.0
sbs(g8
g50
tp802
g0
(g14
g2
Ntp803
Rp804
(dp805
g18
F0.5
sg19
I4
sg20
g0
(g21
g22
(dp806
NI4
stp807
Rp808
(dp809
g19
I4
sg27
Nsg28
Nsg29
Nsbsg30
I2
sg31
F5.0
sbs(g8
Vweek
p810
tp811
g0
(g14
g2
Ntp812
Rp813
(dp814
g18
F0.5
sg19
I4
sg20
g0
(g21
g22
(dp815
I01
I1
sNI3
stp816
Rp817
(dp818
g19
I4
sg27
Nsg28
Nsg29
Nsbsg30
I2
sg31
F5.0
sbs(g8
g440
tp819
g0
(g14
g2
Ntp820
Rp821
(dp822
g18
F0.5
sg19
I4
sg20
g0
(g21
g22
(dp823
NI4
stp824
Rp825
(dp826
g19
I4
sg27
Nsg28
Nsg29
Nsbsg30
I2
sg31
F5.0
sbs(g9
g389
tp827
g0
(g14
g2
Ntp828
Rp829
(dp830
g18
F0.5
sg19
I2
sg20
g0
(g21
g22
(dp831
I01
I1
sNI1
stp832
Rp833
(dp834
g19
I2
sg27
Nsg28
Nsg29
Nsbsg30
I2
sg31
F3.0
sbs(g9
Vcklwctmpe8
p835
tp836
g0
(g14
g2
Ntp837
Rp838
(dp839
g18
F0.5
sg19
I2
sg20
g0
(g21
g22
(dp840
I01
I1
sNI1
stp841
Rp842
(dp843
g19
I2
sg27
Nsg28
Nsg29
Nsbsg30
I2
sg31
F3.0
sbs(g9
g678
tp844
g0
(g14
g2
Ntp845
Rp846
(dp847
g18
F0.5
sg19
I2
sg20
g0
(g21
g22
(dp848
NI2
stp849
Rp850
(dp851
g19
I2
sg27
Nsg28
Nsg29
Nsbsg30
I2
sg31
F3.0
sbs(g8
g835
tp852
g0
(g14
g2
Ntp853
Rp854
(dp855
g18
F0.5
sg19
I4
sg20
g0
(g21
g22
(dp856
NI4
stp857
Rp858
(dp859
g19
I4
sg27
Nsg28
Nsg29
Nsbsg30
I2
sg31
F5.0
sbssS'_label_probdist'
p860
g0
(g14
g2
Ntp861
Rp862
(dp863
g18
F0.5
sg19
I6
sg20
g0
(g21
g22
(dp864
g8
I4
sg9
I2
stp865
Rp866
(dp867
g19
I6
sg27
Nsg28
(lp868
(g8
I4
tp869
a(g9
I2
tp870
asg29
Nsbsg30
I2
sg31
F7.0
sbsb.