ccopy_reg
_reconstructor
p0
(cnltk.classify.naivebayes
NaiveBayesClassifier
p1
c__builtin__
object
p2
Ntp3
Rp4
(dp5
S'_labels'
p6
(lp7
Vclass2
p8
aVclass1
p9
asS'_feature_probdist'
p10
(dp11
(g8
Vtour
p12
tp13
g0
(cnltk.probability
ELEProbDist
p14
g2
Ntp15
Rp16
(dp17
S'_gamma'
p18
F0.5
sS'_N'
p19
I4
sS'_freqdist'
p20
g0
(cnltk.probability
FreqDist
p21
c__builtin__
dict
p22
(dp23
I01
I1
sNI3
stp24
Rp25
(dp26
g19
I4
sS'_max_cache'
p27
NsS'_item_cache'
p28
NsS'_Nr_cache'
p29
NsbsS'_bins'
p30
I2
sS'_divisor'
p31
F5.0
sbs(g8
Vcompletesurrender
p32
tp33
g0
(g14
g2
Ntp34
Rp35
(dp36
g18
F0.5
sg19
I4
sg20
g0
(g21
g22
(dp37
I01
I1
sNI3
stp38
Rp39
(dp40
g19
I4
sg27
Nsg28
Nsg29
Nsbsg30
I2
sg31
F5.0
sbs(g9
Vtrack
p41
tp42
g0
(g14
g2
Ntp43
Rp44
(dp45
g18
F0.5
sg19
I2
sg20
g0
(g21
g22
(dp46
NI2
stp47
Rp48
(dp49
g19
I2
sg27
Nsg28
Nsg29
Nsbsg30
I2
sg31
F3.0
sbs(g9
Vshow
p50
tp51
g0
(g14
g2
Ntp52
Rp53
(dp54
g18
F0.5
sg19
I2
sg20
g0
(g21
g22
(dp55
NI2
stp56
Rp57
(dp58
g19
I2
sg27
Nsg28
Nsg29
Nsbsg30
I2
sg31
F3.0
sbs(g9
Vgame
p59
tp60
g0
(g14
g2
Ntp61
Rp62
(dp63
g18
F0.5
sg19
I2
sg20
g0
(g21
g22
(dp64
I01
I1
sNI1
stp65
Rp66
(dp67
g19
I2
sg27
Nsg28
Nsg29
Nsbsg30
I2
sg31
F3.0
sbs(g8
Vguide
p68
tp69
g0
(g14
g2
Ntp70
Rp71
(dp72
g18
F0.5
sg19
I4
sg20
g0
(g21
g22
(dp73
I01
I2
sNI2
stp74
Rp75
(dp76
g19
I4
sg27
Nsg28
Nsg29
Nsbsg30
I2
sg31
F5.0
sbs(g8
Vweek
p77
tp78
g0
(g14
g2
Ntp79
Rp80
(dp81
g18
F0.5
sg19
I4
sg20
g0
(g21
g22
(dp82
I01
I1
sNI3
stp83
Rp84
(dp85
g19
I4
sg27
Nsg28
Nsg29
Nsbsg30
I2
sg31
F5.0
sbs(g8
Vdvds
p86
tp87
g0
(g14
g2
Ntp88
Rp89
(dp90
g18
F0.5
sg19
I4
sg20
g0
(g21
g22
(dp91
NI4
stp92
Rp93
(dp94
g19
I4
sg27
Nsg28
Nsg29
Nsbsg30
I2
sg31
F5.0
sbs(g8
Vyvessaintlaurent
p95
tp96
g0
(g14
g2
Ntp97
Rp98
(dp99
g18
F0.5
sg19
I4
sg20
g0
(g21
g22
(dp100
NI4
stp101
Rp102
(dp103
g19
I4
sg27
Nsg28
Nsg29
Nsbsg30
I2
sg31
F5.0
sbs(g9
Vworldcup2014
p104
tp105
g0
(g14
g2
Ntp106
Rp107
(dp108
g18
F0.5
sg19
I2
sg20
g0
(g21
g22
(dp109
I01
I1
sNI1
stp110
Rp111
(dp112
g19
I2
sg27
Nsg28
Nsg29
Nsbsg30
I2
sg31
F3.0
sbs(g9
Vundertheskin
p113
tp114
g0
(g14
g2
Ntp115
Rp116
(dp117
g18
F0.5
sg19
I2
sg20
g0
(g21
g22
(dp118
I01
I1
sNI1
stp119
Rp120
(dp121
g19
I2
sg27
Nsg28
Nsg29
Nsbsg30
I2
sg31
F3.0
sbs(g8
Vresults
p122
tp123
g0
(g14
g2
Ntp124
Rp125
(dp126
g18
F0.5
sg19
I4
sg20
g0
(g21
g22
(dp127
NI4
stp128
Rp129
(dp130
g19
I4
sg27
Nsg28
Nsg29
Nsbsg30
I2
sg31
F5.0
sbs(g9
Vcorrect
p131
tp132
g0
(g14
g2
Ntp133
Rp134
(dp135
g18
F0.5
sg19
I2
sg20
g0
(g21
g22
(dp136
I01
I1
sNI1
stp137
Rp138
(dp139
g19
I2
sg27
Nsg28
Nsg29
Nsbsg30
I2
sg31
F3.0
sbs(g9
Valbums
p140
tp141
g0
(g14
g2
Ntp142
Rp143
(dp144
g18
F0.5
sg19
I2
sg20
g0
(g21
g22
(dp145
NI2
stp146
Rp147
(dp148
g19
I2
sg27
Nsg28
Nsg29
Nsbsg30
I2
sg31
F3.0
sbs(g8
Vstrong
p149
tp150
g0
(g14
g2
Ntp151
Rp152
(dp153
g18
F0.5
sg19
I4
sg20
g0
(g21
g22
(dp154
NI4
stp155
Rp156
(dp157
g19
I4
sg27
Nsg28
Nsg29
Nsbsg30
I2
sg31
F5.0
sbs(g8
Vdebuting
p158
tp159
g0
(g14
g2
Ntp160
Rp161
(dp162
g18
F0.5
sg19
I4
sg20
g0
(g21
g22
(dp163
I01
I1
sNI3
stp164
Rp165
(dp166
g19
I4
sg27
Nsg28
Nsg29
Nsbsg30
I2
sg31
F5.0
sbs(g9
Vlondon
p167
tp168
g0
(g14
g2
Ntp169
Rp170
(dp171
g18
F0.5
sg19
I2
sg20
g0
(g21
g22
(dp172
NI2
stp173
Rp174
(dp175
g19
I2
sg27
Nsg28
Nsg29
Nsbsg30
I2
sg31
F3.0
sbs(g9
g95
tp176
g0
(g14
g2
Ntp177
Rp178
(dp179
g18
F0.5
sg19
I2
sg20
g0
(g21
g22
(dp180
I01
I1
sNI1
stp181
Rp182
(dp183
g19
I2
sg27
Nsg28
Nsg29
Nsbsg30
I2
sg31
F3.0
sbs(g9
Vdetails
p184
tp185
g0
(g14
g2
Ntp186
Rp187
(dp188
g18
F0.5
sg19
I2
sg20
g0
(g21
g22
(dp189
NI2
stp190
Rp191
(dp192
g19
I2
sg27
Nsg28
Nsg29
Nsbsg30
I2
sg31
F3.0
sbs(g9
Vweek
p193
tp194
g0
(g14
g2
Ntp195
Rp196
(dp197
g18
F0.5
sg19
I2
sg20
g0
(g21
g22
(dp198
I01
I1
sNI1
stp199
Rp200
(dp201
g19
I2
sg27
Nsg28
Nsg29
Nsbsg30
I2
sg31
F3.0
sbs(g9
Vgive
p202
tp203
g0
(g14
g2
Ntp204
Rp205
(dp206
g18
F0.5
sg19
I2
sg20
g0
(g21
g22
(dp207
NI2
stp208
Rp209
(dp210
g19
I2
sg27
Nsg28
Nsg29
Nsbsg30
I2
sg31
F3.0
sbs(g9
Vfallingskies
p211
tp212
g0
(g14
g2
Ntp213
Rp214
(dp215
g18
F0.5
sg19
I2
sg20
g0
(g21
g22
(dp216
I01
I1
sNI1
stp217
Rp218
(dp219
g19
I2
sg27
Nsg28
Nsg29
Nsbsg30
I2
sg31
F3.0
sbs(g8
g211
tp220
g0
(g14
g2
Ntp221
Rp222
(dp223
g18
F0.5
sg19
I4
sg20
g0
(g21
g22
(dp224
NI4
stp225
Rp226
(dp227
g19
I4
sg27
Nsg28
Nsg29
Nsbsg30
I2
sg31
F5.0
sbs(g8
g104
tp228
g0
(g14
g2
Ntp229
Rp230
(dp231
g18
F0.5
sg19
I4
sg20
g0
(g21
g22
(dp232
NI4
stp233
Rp234
(dp235
g19
I4
sg27
Nsg28
Nsg29
Nsbsg30
I2
sg31
F5.0
sbs(g9
g12
tp236
g0
(g14
g2
Ntp237
Rp238
(dp239
g18
F0.5
sg19
I2
sg20
g0
(g21
g22
(dp240
NI2
stp241
Rp242
(dp243
g19
I2
sg27
Nsg28
Nsg29
Nsbsg30
I2
sg31
F3.0
sbs(g9
Vengine
p244
tp245
g0
(g14
g2
Ntp246
Rp247
(dp248
g18
F0.5
sg19
I2
sg20
g0
(g21
g22
(dp249
I01
I1
sNI1
stp250
Rp251
(dp252
g19
I2
sg27
Nsg28
Nsg29
Nsbsg30
I2
sg31
F3.0
sbs(g8
Vpromised
p253
tp254
g0
(g14
g2
Ntp255
Rp256
(dp257
g18
F0.5
sg19
I4
sg20
g0
(g21
g22
(dp258
I01
I1
sNI3
stp259
Rp260
(dp261
g19
I4
sg27
Nsg28
Nsg29
Nsbsg30
I2
sg31
F5.0
sbs(g8
Vmorrissey
p262
tp263
g0
(g14
g2
Ntp264
Rp265
(dp266
g18
F0.5
sg19
I4
sg20
g0
(g21
g22
(dp267
I01
I1
sNI3
stp268
Rp269
(dp270
g19
I4
sg27
Nsg28
Nsg29
Nsbsg30
I2
sg31
F5.0
sbs(g8
g184
tp271
g0
(g14
g2
Ntp272
Rp273
(dp274
g18
F0.5
sg19
I4
sg20
g0
(g21
g22
(dp275
I01
I1
sNI3
stp276
Rp277
(dp278
g19
I4
sg27
Nsg28
Nsg29
Nsbsg30
I2
sg31
F5.0
sbs(g8
Vasked
p279
tp280
g0
(g14
g2
Ntp281
Rp282
(dp283
g18
F0.5
sg19
I4
sg20
g0
(g21
g22
(dp284
I01
I1
sNI3
stp285
Rp286
(dp287
g19
I4
sg27
Nsg28
Nsg29
Nsbsg30
I2
sg31
F5.0
sbs(g9
g279
tp288
g0
(g14
g2
Ntp289
Rp290
(dp291
g18
F0.5
sg19
I2
sg20
g0
(g21
g22
(dp292
NI2
stp293
Rp294
(dp295
g19
I2
sg27
Nsg28
Nsg29
Nsbsg30
I2
sg31
F3.0
sbs(g9
Vprediction
p296
tp297
g0
(g14
g2
Ntp298
Rp299
(dp300
g18
F0.5
sg19
I2
sg20
g0
(g21
g22
(dp301
I01
I1
sNI1
stp302
Rp303
(dp304
g19
I2
sg27
Nsg28
Nsg29
Nsbsg30
I2
sg31
F3.0
sbs(g9
g122
tp305
g0
(g14
g2
Ntp306
Rp307
(dp308
g18
F0.5
sg19
I2
sg20
g0
(g21
g22
(dp309
I01
I1
sNI1
stp310
Rp311
(dp312
g19
I2
sg27
Nsg28
Nsg29
Nsbsg30
I2
sg31
F3.0
sbs(g8
Vnew
p313
tp314
g0
(g14
g2
Ntp315
Rp316
(dp317
g18
F0.5
sg19
I4
sg20
g0
(g21
g22
(dp318
I01
I2
sNI2
stp319
Rp320
(dp321
g19
I4
sg27
Nsg28
Nsg29
Nsbsg30
I2
sg31
F5.0
sbs(g9
Vyear
p322
tp323
g0
(g14
g2
Ntp324
Rp325
(dp326
g18
F0.5
sg19
I2
sg20
g0
(g21
g22
(dp327
NI2
stp328
Rp329
(dp330
g19
I2
sg27
Nsg28
Nsg29
Nsbsg30
I2
sg31
F3.0
sbs(g9
Vlater
p331
tp332
g0
(g14
g2
Ntp333
Rp334
(dp335
g18
F0.5
sg19
I2
sg20
g0
(g21
g22
(dp336
NI2
stp337
Rp338
(dp339
g19
I2
sg27
Nsg28
Nsg29
Nsbsg30
I2
sg31
F3.0
sbs(g8
Vsongs
p340
tp341
g0
(g14
g2
Ntp342
Rp343
(dp344
g18
F0.5
sg19
I4
sg20
g0
(g21
g22
(dp345
I01
I1
sNI3
stp346
Rp347
(dp348
g19
I4
sg27
Nsg28
Nsg29
Nsbsg30
I2
sg31
F5.0
sbs(g9
g68
tp349
g0
(g14
g2
Ntp350
Rp351
(dp352
g18
F0.5
sg19
I2
sg20
g0
(g21
g22
(dp353
NI2
stp354
Rp355
(dp356
g19
I2
sg27
Nsg28
Nsg29
Nsbsg30
I2
sg31
F3.0
sbs(g9
Vseptember
p357
tp358
g0
(g14
g2
Ntp359
Rp360
(dp361
g18
F0.5
sg19
I2
sg20
g0
(g21
g22
(dp362
NI2
stp363
Rp364
(dp365
g19
I2
sg27
Nsg28
Nsg29
Nsbsg30
I2
sg31
F3.0
sbs(g9
g32
tp366
g0
(g14
g2
Ntp367
Rp368
(dp369
g18
F0.5
sg19
I2
sg20
g0
(g21
g22
(dp370
NI2
stp371
Rp372
(dp373
g19
I2
sg27
Nsg28
Nsg29
Nsbsg30
I2
sg31
F3.0
sbs(g8
Vgermany
p374
tp375
g0
(g14
g2
Ntp376
Rp377
(dp378
g18
F0.5
sg19
I4
sg20
g0
(g21
g22
(dp379
NI4
stp380
Rp381
(dp382
g19
I4
sg27
Nsg28
Nsg29
Nsbsg30
I2
sg31
F5.0
sbs(g8
g322
tp383
g0
(g14
g2
Ntp384
Rp385
(dp386
g18
F0.5
sg19
I4
sg20
g0
(g21
g22
(dp387
I01
I1
sNI3
stp388
Rp389
(dp390
g19
I4
sg27
Nsg28
Nsg29
Nsbsg30
I2
sg31
F5.0
sbs(g9
V2014
p391
tp392
g0
(g14
g2
Ntp393
Rp394
(dp395
g18
F0.5
sg19
I2
sg20
g0
(g21
g22
(dp396
I01
I1
sNI1
stp397
Rp398
(dp399
g19
I2
sg27
Nsg28
Nsg29
Nsbsg30
I2
sg31
F3.0
sbs(g9
g262
tp400
g0
(g14
g2
Ntp401
Rp402
(dp403
g18
F0.5
sg19
I2
sg20
g0
(g21
g22
(dp404
NI2
stp405
Rp406
(dp407
g19
I2
sg27
Nsg28
Nsg29
Nsbsg30
I2
sg31
F3.0
sbs(g8
g357
tp408
g0
(g14
g2
Ntp409
Rp410
(dp411
g18
F0.5
sg19
I4
sg20
g0
(g21
g22
(dp412
I01
I1
sNI3
stp413
Rp414
(dp415
g19
I4
sg27
Nsg28
Nsg29
Nsbsg30
I2
sg31
F5.0
sbs(g9
Vextensive
p416
tp417
g0
(g14
g2
Ntp418
Rp419
(dp420
g18
F0.5
sg19
I2
sg20
g0
(g21
g22
(dp421
NI2
stp422
Rp423
(dp424
g19
I2
sg27
Nsg28
Nsg29
Nsbsg30
I2
sg31
F3.0
sbs(g8
Vjasonmraz
p425
tp426
g0
(g14
g2
Ntp427
Rp428
(dp429
g18
F0.5
sg19
I4
sg20
g0
(g21
g22
(dp430
I01
I1
sNI3
stp431
Rp432
(dp433
g19
I4
sg27
Nsg28
Nsg29
Nsbsg30
I2
sg31
F5.0
sbs(g8
Vthenational
p434
tp435
g0
(g14
g2
Ntp436
Rp437
(dp438
g18
F0.5
sg19
I4
sg20
g0
(g21
g22
(dp439
I01
I1
sNI3
stp440
Rp441
(dp442
g19
I4
sg27
Nsg28
Nsg29
Nsbsg30
I2
sg31
F5.0
sbs(g9
g149
tp443
g0
(g14
g2
Ntp444
Rp445
(dp446
g18
F0.5
sg19
I2
sg20
g0
(g21
g22
(dp447
I01
I1
sNI1
stp448
Rp449
(dp450
g19
I2
sg27
Nsg28
Nsg29
Nsbsg30
I2
sg31
F3.0
sbs(g8
Vhuge
p451
tp452
g0
(g14
g2
Ntp453
Rp454
(dp455
g18
F0.5
sg19
I4
sg20
g0
(g21
g22
(dp456
I01
I1
sNI3
stp457
Rp458
(dp459
g19
I4
sg27
Nsg28
Nsg29
Nsbsg30
I2
sg31
F5.0
sbs(g9
g158
tp460
g0
(g14
g2
Ntp461
Rp462
(dp463
g18
F0.5
sg19
I2
sg20
g0
(g21
g22
(dp464
NI2
stp465
Rp466
(dp467
g19
I2
sg27
Nsg28
Nsg29
Nsbsg30
I2
sg31
F3.0
sbs(g9
Vthehooliganfactory
p468
tp469
g0
(g14
g2
Ntp470
Rp471
(dp472
g18
F0.5
sg19
I2
sg20
g0
(g21
g22
(dp473
I01
I1
sNI1
stp474
Rp475
(dp476
g19
I2
sg27
Nsg28
Nsg29
Nsbsg30
I2
sg31
F3.0
sbs(g8
g244
tp477
g0
(g14
g2
Ntp478
Rp479
(dp480
g18
F0.5
sg19
I4
sg20
g0
(g21
g22
(dp481
NI4
stp482
Rp483
(dp484
g19
I4
sg27
Nsg28
Nsg29
Nsbsg30
I2
sg31
F5.0
sbs(g8
g296
tp485
g0
(g14
g2
Ntp486
Rp487
(dp488
g18
F0.5
sg19
I4
sg20
g0
(g21
g22
(dp489
NI4
stp490
Rp491
(dp492
g19
I4
sg27
Nsg28
Nsg29
Nsbsg30
I2
sg31
F5.0
sbs(g8
g416
tp493
g0
(g14
g2
Ntp494
Rp495
(dp496
g18
F0.5
sg19
I4
sg20
g0
(g21
g22
(dp497
I01
I1
sNI3
stp498
Rp499
(dp500
g19
I4
sg27
Nsg28
Nsg29
Nsbsg30
I2
sg31
F5.0
sbs(g9
Vannounced
p501
tp502
g0
(g14
g2
Ntp503
Rp504
(dp505
g18
F0.5
sg19
I2
sg20
g0
(g21
g22
(dp506
NI2
stp507
Rp508
(dp509
g19
I2
sg27
Nsg28
Nsg29
Nsbsg30
I2
sg31
F3.0
sbs(g9
Vjungle
p510
tp511
g0
(g14
g2
Ntp512
Rp513
(dp514
g18
F0.5
sg19
I2
sg20
g0
(g21
g22
(dp515
NI2
stp516
Rp517
(dp518
g19
I2
sg27
Nsg28
Nsg29
Nsbsg30
I2
sg31
F3.0
sbs(g8
g50
tp519
g0
(g14
g2
Ntp520
Rp521
(dp522
g18
F0.5
sg19
I4
sg20
g0
(g21
g22
(dp523
I01
I1
sNI3
stp524
Rp525
(dp526
g19
I4
sg27
Nsg28
Nsg29
Nsbsg30
I2
sg31
F5.0
sbs(g9
g451
tp527
g0
(g14
g2
Ntp528
Rp529
(dp530
g18
F0.5
sg19
I2
sg20
g0
(g21
g22
(dp531
NI2
stp532
Rp533
(dp534
g19
I2
sg27
Nsg28
Nsg29
Nsbsg30
I2
sg31
F3.0
sbs(g8
g59
tp535
g0
(g14
g2
Ntp536
Rp537
(dp538
g18
F0.5
sg19
I4
sg20
g0
(g21
g22
(dp539
NI4
stp540
Rp541
(dp542
g19
I4
sg27
Nsg28
Nsg29
Nsbsg30
I2
sg31
F5.0
sbs(g8
g113
tp543
g0
(g14
g2
Ntp544
Rp545
(dp546
g18
F0.5
sg19
I4
sg20
g0
(g21
g22
(dp547
NI4
stp548
Rp549
(dp550
g19
I4
sg27
Nsg28
Nsg29
Nsbsg30
I2
sg31
F5.0
sbs(g9
Vlots
p551
tp552
g0
(g14
g2
Ntp553
Rp554
(dp555
g18
F0.5
sg19
I2
sg20
g0
(g21
g22
(dp556
I01
I1
sNI1
stp557
Rp558
(dp559
g19
I2
sg27
Nsg28
Nsg29
Nsbsg30
I2
sg31
F3.0
sbs(g9
g374
tp560
g0
(g14
g2
Ntp561
Rp562
(dp563
g18
F0.5
sg19
I2
sg20
g0
(g21
g22
(dp564
I01
I1
sNI1
stp565
Rp566
(dp567
g19
I2
sg27
Nsg28
Nsg29
Nsbsg30
I2
sg31
F3.0
sbs(g8
g331
tp568
g0
(g14
g2
Ntp569
Rp570
(dp571
g18
F0.5
sg19
I4
sg20
g0
(g21
g22
(dp572
I01
I1
sNI3
stp573
Rp574
(dp575
g19
I4
sg27
Nsg28
Nsg29
Nsbsg30
I2
sg31
F5.0
sbs(g8
g468
tp576
g0
(g14
g2
Ntp577
Rp578
(dp579
g18
F0.5
sg19
I4
sg20
g0
(g21
g22
(dp580
NI4
stp581
Rp582
(dp583
g19
I4
sg27
Nsg28
Nsg29
Nsbsg30
I2
sg31
F5.0
sbs(g8
g391
tp584
g0
(g14
g2
Ntp585
Rp586
(dp587
g18
F0.5
sg19
I4
sg20
g0
(g21
g22
(dp588
NI4
stp589
Rp590
(dp591
g19
I4
sg27
Nsg28
Nsg29
Nsbsg30
I2
sg31
F5.0
sbs(g9
g86
tp592
g0
(g14
g2
Ntp593
Rp594
(dp595
g18
F0.5
sg19
I2
sg20
g0
(g21
g22
(dp596
I01
I1
sNI1
stp597
Rp598
(dp599
g19
I2
sg27
Nsg28
Nsg29
Nsbsg30
I2
sg31
F3.0
sbs(g8
g131
tp600
g0
(g14
g2
Ntp601
Rp602
(dp603
g18
F0.5
sg19
I4
sg20
g0
(g21
g22
(dp604
NI4
stp605
Rp606
(dp607
g19
I4
sg27
Nsg28
Nsg29
Nsbsg30
I2
sg31
F5.0
sbs(g8
g501
tp608
g0
(g14
g2
Ntp609
Rp610
(dp611
g18
F0.5
sg19
I4
sg20
g0
(g21
g22
(dp612
I01
I2
sNI2
stp613
Rp614
(dp615
g19
I4
sg27
Nsg28
Nsg29
Nsbsg30
I2
sg31
F5.0
sbs(g8
g551
tp616
g0
(g14
g2
Ntp617
Rp618
(dp619
g18
F0.5
sg19
I4
sg20
g0
(g21
g22
(dp620
NI4
stp621
Rp622
(dp623
g19
I4
sg27
Nsg28
Nsg29
Nsbsg30
I2
sg31
F5.0
sbs(g8
g41
tp624
g0
(g14
g2
Ntp625
Rp626
(dp627
g18
F0.5
sg19
I4
sg20
g0
(g21
g22
(dp628
I01
I1
sNI3
stp629
Rp630
(dp631
g19
I4
sg27
Nsg28
Nsg29
Nsbsg30
I2
sg31
F5.0
sbs(g8
g510
tp632
g0
(g14
g2
Ntp633
Rp634
(dp635
g18
F0.5
sg19
I4
sg20
g0
(g21
g22
(dp636
I01
I1
sNI3
stp637
Rp638
(dp639
g19
I4
sg27
Nsg28
Nsg29
Nsbsg30
I2
sg31
F5.0
sbs(g8
g167
tp640
g0
(g14
g2
Ntp641
Rp642
(dp643
g18
F0.5
sg19
I4
sg20
g0
(g21
g22
(dp644
I01
I1
sNI3
stp645
Rp646
(dp647
g19
I4
sg27
Nsg28
Nsg29
Nsbsg30
I2
sg31
F5.0
sbs(g9
Vnew
p648
tp649
g0
(g14
g2
Ntp650
Rp651
(dp652
g18
F0.5
sg19
I2
sg20
g0
(g21
g22
(dp653
I01
I1
sNI1
stp654
Rp655
(dp656
g19
I2
sg27
Nsg28
Nsg29
Nsbsg30
I2
sg31
F3.0
sbs(g8
g140
tp657
g0
(g14
g2
Ntp658
Rp659
(dp660
g18
F0.5
sg19
I4
sg20
g0
(g21
g22
(dp661
I01
I1
sNI3
stp662
Rp663
(dp664
g19
I4
sg27
Nsg28
Nsg29
Nsbsg30
I2
sg31
F5.0
sbs(g8
g202
tp665
g0
(g14
g2
Ntp666
Rp667
(dp668
g18
F0.5
sg19
I4
sg20
g0
(g21
g22
(dp669
I01
I1
sNI3
stp670
Rp671
(dp672
g19
I4
sg27
Nsg28
Nsg29
Nsbsg30
I2
sg31
F5.0
sbs(g9
g253
tp673
g0
(g14
g2
Ntp674
Rp675
(dp676
g18
F0.5
sg19
I2
sg20
g0
(g21
g22
(dp677
NI2
stp678
Rp679
(dp680
g19
I2
sg27
Nsg28
Nsg29
Nsbsg30
I2
sg31
F3.0
sbs(g9
g425
tp681
g0
(g14
g2
Ntp682
Rp683
(dp684
g18
F0.5
sg19
I2
sg20
g0
(g21
g22
(dp685
NI2
stp686
Rp687
(dp688
g19
I2
sg27
Nsg28
Nsg29
Nsbsg30
I2
sg31
F3.0
sbs(g9
g340
tp689
g0
(g14
g2
Ntp690
Rp691
(dp692
g18
F0.5
sg19
I2
sg20
g0
(g21
g22
(dp693
NI2
stp694
Rp695
(dp696
g19
I2
sg27
Nsg28
Nsg29
Nsbsg30
I2
sg31
F3.0
sbs(g9
g434
tp697
g0
(g14
g2
Ntp698
Rp699
(dp700
g18
F0.5
sg19
I2
sg20
g0
(g21
g22
(dp701
NI2
stp702
Rp703
(dp704
g19
I2
sg27
Nsg28
Nsg29
Nsbsg30
I2
sg31
F3.0
sbssS'_label_probdist'
p705
g0
(g14
g2
Ntp706
Rp707
(dp708
g18
F0.5
sg19
I6
sg20
g0
(g21
g22
(dp709
g8
I4
sg9
I2
stp710
Rp711
(dp712
g19
I6
sg27
Nsg28
(lp713
(g8
I4
tp714
a(g9
I2
tp715
asg29
Nsbsg30
I2
sg31
F7.0
sbsb.