ccopy_reg
_reconstructor
p0
(cnltk.classify.naivebayes
NaiveBayesClassifier
p1
c__builtin__
object
p2
Ntp3
Rp4
(dp5
S'_labels'
p6
(lp7
V class3
p8
aVclass2
p9
aVclass1
p10
asS'_feature_probdist'
p11
(dp12
(g10
Vneverland
p13
tp14
g0
(cnltk.probability
ELEProbDist
p15
g2
Ntp16
Rp17
(dp18
S'_gamma'
p19
F0.5
sS'_N'
p20
I1
sS'_freqdist'
p21
g0
(cnltk.probability
FreqDist
p22
c__builtin__
dict
p23
(dp24
NI1
stp25
Rp26
(dp27
g20
I1
sS'_max_cache'
p28
NsS'_item_cache'
p29
NsS'_Nr_cache'
p30
NsbsS'_bins'
p31
I2
sS'_divisor'
p32
F2.0
sbs(g9
Vwant
p33
tp34
g0
(g15
g2
Ntp35
Rp36
(dp37
g19
F0.5
sg20
I2
sg21
g0
(g22
g23
(dp38
NI2
stp39
Rp40
(dp41
g20
I2
sg28
Nsg29
Nsg30
Nsbsg31
I2
sg32
F3.0
sbs(g8
Vwatch
p42
tp43
g0
(g15
g2
Ntp44
Rp45
(dp46
g19
F0.5
sg20
I4
sg21
g0
(g22
g23
(dp47
NI4
stp48
Rp49
(dp50
g20
I4
sg28
Nsg29
Nsg30
Nsbsg31
I2
sg32
F5.0
sbs(g10
Vthehmvunderground
p51
tp52
g0
(g15
g2
Ntp53
Rp54
(dp55
g19
F0.5
sg20
I1
sg21
g0
(g22
g23
(dp56
NI1
stp57
Rp58
(dp59
g20
I1
sg28
Nsg29
Nsg30
Nsbsg31
I2
sg32
F2.0
sbs(g8
Vace
p60
tp61
g0
(g15
g2
Ntp62
Rp63
(dp64
g19
F0.5
sg20
I4
sg21
g0
(g22
g23
(dp65
NI3
sI01
I1
stp66
Rp67
(dp68
g20
I4
sg28
Nsg29
Nsg30
Nsbsg31
I2
sg32
F5.0
sbs(g10
Vmillion
p69
tp70
g0
(g15
g2
Ntp71
Rp72
(dp73
g19
F0.5
sg20
I1
sg21
g0
(g22
g23
(dp74
NI1
stp75
Rp76
(dp77
g20
I1
sg28
Nsg29
Nsg30
Nsbsg31
I2
sg32
F2.0
sbs(g10
Vwin
p78
tp79
g0
(g15
g2
Ntp80
Rp81
(dp82
g19
F0.5
sg20
I1
sg21
g0
(g22
g23
(dp83
NI1
stp84
Rp85
(dp86
g20
I1
sg28
Nsg29
Nsg30
Nsbsg31
I2
sg32
F2.0
sbs(g8
Vexcited
p87
tp88
g0
(g15
g2
Ntp89
Rp90
(dp91
g19
F0.5
sg20
I4
sg21
g0
(g22
g23
(dp92
NI3
sI01
I1
stp93
Rp94
(dp95
g20
I4
sg28
Nsg29
Nsg30
Nsbsg31
I2
sg32
F5.0
sbs(g8
Vguardiansofthegalaxy
p96
tp97
g0
(g15
g2
Ntp98
Rp99
(dp100
g19
F0.5
sg20
I4
sg21
g0
(g22
g23
(dp101
NI3
sI01
I1
stp102
Rp103
(dp104
g20
I4
sg28
Nsg29
Nsg30
Nsbsg31
I2
sg32
F5.0
sbs(g8
Vposter
p105
tp106
g0
(g15
g2
Ntp107
Rp108
(dp109
g19
F0.5
sg20
I4
sg21
g0
(g22
g23
(dp110
NI3
sI01
I1
stp111
Rp112
(dp113
g20
I4
sg28
Nsg29
Nsg30
Nsbsg31
I2
sg32
F5.0
sbs(g8
Vnew
p114
tp115
g0
(g15
g2
Ntp116
Rp117
(dp118
g19
F0.5
sg20
I4
sg21
g0
(g22
g23
(dp119
NI4
stp120
Rp121
(dp122
g20
I4
sg28
Nsg29
Nsg30
Nsbsg31
I2
sg32
F5.0
sbs(g9
Vspare
p123
tp124
g0
(g15
g2
Ntp125
Rp126
(dp127
g19
F0.5
sg20
I2
sg21
g0
(g22
g23
(dp128
NI2
stp129
Rp130
(dp131
g20
I2
sg28
Nsg29
Nsg30
Nsbsg31
I2
sg32
F3.0
sbs(g10
Vsincityadametokillfor
p132
tp133
g0
(g15
g2
Ntp134
Rp135
(dp136
g19
F0.5
sg20
I1
sg21
g0
(g22
g23
(dp137
I01
I1
stp138
Rp139
(dp140
g20
I1
sg28
Nsg29
Nsg30
Nsbsg31
I2
sg32
F2.0
sbs(g10
Vfilm
p141
tp142
g0
(g15
g2
Ntp143
Rp144
(dp145
g19
F0.5
sg20
I1
sg21
g0
(g22
g23
(dp146
NI1
stp147
Rp148
(dp149
g20
I1
sg28
Nsg29
Nsg30
Nsbsg31
I2
sg32
F2.0
sbs(g10
Vrevealed
p150
tp151
g0
(g15
g2
Ntp152
Rp153
(dp154
g19
F0.5
sg20
I1
sg21
g0
(g22
g23
(dp155
I01
I1
stp156
Rp157
(dp158
g20
I1
sg28
Nsg29
Nsg30
Nsbsg31
I2
sg32
F2.0
sbs(g8
Vstores
p159
tp160
g0
(g15
g2
Ntp161
Rp162
(dp163
g19
F0.5
sg20
I4
sg21
g0
(g22
g23
(dp164
NI4
stp165
Rp166
(dp167
g20
I4
sg28
Nsg29
Nsg30
Nsbsg31
I2
sg32
F5.0
sbs(g8
Vred
p168
tp169
g0
(g15
g2
Ntp170
Rp171
(dp172
g19
F0.5
sg20
I4
sg21
g0
(g22
g23
(dp173
NI4
stp174
Rp175
(dp176
g20
I4
sg28
Nsg29
Nsg30
Nsbsg31
I2
sg32
F5.0
sbs(g9
g87
tp177
g0
(g15
g2
Ntp178
Rp179
(dp180
g19
F0.5
sg20
I2
sg21
g0
(g22
g23
(dp181
NI2
stp182
Rp183
(dp184
g20
I2
sg28
Nsg29
Nsg30
Nsbsg31
I2
sg32
F3.0
sbs(g10
Vfree
p185
tp186
g0
(g15
g2
Ntp187
Rp188
(dp189
g19
F0.5
sg20
I1
sg21
g0
(g22
g23
(dp190
NI1
stp191
Rp192
(dp193
g20
I1
sg28
Nsg29
Nsg30
Nsbsg31
I2
sg32
F2.0
sbs(g9
g150
tp194
g0
(g15
g2
Ntp195
Rp196
(dp197
g19
F0.5
sg20
I2
sg21
g0
(g22
g23
(dp198
NI2
stp199
Rp200
(dp201
g20
I2
sg28
Nsg29
Nsg30
Nsbsg31
I2
sg32
F3.0
sbs(g9
g78
tp202
g0
(g15
g2
Ntp203
Rp204
(dp205
g19
F0.5
sg20
I2
sg21
g0
(g22
g23
(dp206
NI2
stp207
Rp208
(dp209
g20
I2
sg28
Nsg29
Nsg30
Nsbsg31
I2
sg32
F3.0
sbs(g8
Vtbt
p210
tp211
g0
(g15
g2
Ntp212
Rp213
(dp214
g19
F0.5
sg20
I4
sg21
g0
(g22
g23
(dp215
NI3
sI01
I1
stp216
Rp217
(dp218
g20
I4
sg28
Nsg29
Nsg30
Nsbsg31
I2
sg32
F5.0
sbs(g8
g123
tp219
g0
(g15
g2
Ntp220
Rp221
(dp222
g19
F0.5
sg20
I4
sg21
g0
(g22
g23
(dp223
NI3
sI01
I1
stp224
Rp225
(dp226
g20
I4
sg28
Nsg29
Nsg30
Nsbsg31
I2
sg32
F5.0
sbs(g9
Vbrutal
p227
tp228
g0
(g15
g2
Ntp229
Rp230
(dp231
g19
F0.5
sg20
I2
sg21
g0
(g22
g23
(dp232
NI2
stp233
Rp234
(dp235
g20
I2
sg28
Nsg29
Nsg30
Nsbsg31
I2
sg32
F3.0
sbs(g9
g51
tp236
g0
(g15
g2
Ntp237
Rp238
(dp239
g19
F0.5
sg20
I2
sg21
g0
(g22
g23
(dp240
NI2
stp241
Rp242
(dp243
g20
I2
sg28
Nsg29
Nsg30
Nsbsg31
I2
sg32
F3.0
sbs(g10
g123
tp244
g0
(g15
g2
Ntp245
Rp246
(dp247
g19
F0.5
sg20
I1
sg21
g0
(g22
g23
(dp248
NI1
stp249
Rp250
(dp251
g20
I1
sg28
Nsg29
Nsg30
Nsbsg31
I2
sg32
F2.0
sbs(g8
Vmeet
p252
tp253
g0
(g15
g2
Ntp254
Rp255
(dp256
g19
F0.5
sg20
I4
sg21
g0
(g22
g23
(dp257
NI3
sI01
I1
stp258
Rp259
(dp260
g20
I4
sg28
Nsg29
Nsg30
Nsbsg31
I2
sg32
F5.0
sbs(g9
Vranch
p261
tp262
g0
(g15
g2
Ntp263
Rp264
(dp265
g19
F0.5
sg20
I2
sg21
g0
(g22
g23
(dp266
NI2
stp267
Rp268
(dp269
g20
I2
sg28
Nsg29
Nsg30
Nsbsg31
I2
sg32
F3.0
sbs(g10
g159
tp270
g0
(g15
g2
Ntp271
Rp272
(dp273
g19
F0.5
sg20
I1
sg21
g0
(g22
g23
(dp274
NI1
stp275
Rp276
(dp277
g20
I1
sg28
Nsg29
Nsg30
Nsbsg31
I2
sg32
F2.0
sbs(g8
g150
tp278
g0
(g15
g2
Ntp279
Rp280
(dp281
g19
F0.5
sg20
I4
sg21
g0
(g22
g23
(dp282
NI4
stp283
Rp284
(dp285
g20
I4
sg28
Nsg29
Nsg30
Nsbsg31
I2
sg32
F5.0
sbs(g9
g13
tp286
g0
(g15
g2
Ntp287
Rp288
(dp289
g19
F0.5
sg20
I2
sg21
g0
(g22
g23
(dp290
NI2
stp291
Rp292
(dp293
g20
I2
sg28
Nsg29
Nsg30
Nsbsg31
I2
sg32
F3.0
sbs(g8
g132
tp294
g0
(g15
g2
Ntp295
Rp296
(dp297
g19
F0.5
sg20
I4
sg21
g0
(g22
g23
(dp298
NI4
stp299
Rp300
(dp301
g20
I4
sg28
Nsg29
Nsg30
Nsbsg31
I2
sg32
F5.0
sbs(g10
Vdownload
p302
tp303
g0
(g15
g2
Ntp304
Rp305
(dp306
g19
F0.5
sg20
I1
sg21
g0
(g22
g23
(dp307
NI1
stp308
Rp309
(dp310
g20
I1
sg28
Nsg29
Nsg30
Nsbsg31
I2
sg32
F2.0
sbs(g8
Vtweet
p311
tp312
g0
(g15
g2
Ntp313
Rp314
(dp315
g19
F0.5
sg20
I4
sg21
g0
(g22
g23
(dp316
NI3
sI01
I1
stp317
Rp318
(dp319
g20
I4
sg28
Nsg29
Nsg30
Nsbsg31
I2
sg32
F5.0
sbs(g9
g252
tp320
g0
(g15
g2
Ntp321
Rp322
(dp323
g19
F0.5
sg20
I2
sg21
g0
(g22
g23
(dp324
NI2
stp325
Rp326
(dp327
g20
I2
sg28
Nsg29
Nsg30
Nsbsg31
I2
sg32
F3.0
sbs(g10
g96
tp328
g0
(g15
g2
Ntp329
Rp330
(dp331
g19
F0.5
sg20
I1
sg21
g0
(g22
g23
(dp332
NI1
stp333
Rp334
(dp335
g20
I1
sg28
Nsg29
Nsg30
Nsbsg31
I2
sg32
F2.0
sbs(g10
g87
tp336
g0
(g15
g2
Ntp337
Rp338
(dp339
g19
F0.5
sg20
I1
sg21
g0
(g22
g23
(dp340
NI1
stp341
Rp342
(dp343
g20
I1
sg28
Nsg29
Nsg30
Nsbsg31
I2
sg32
F2.0
sbs(g8
Vstart
p344
tp345
g0
(g15
g2
Ntp346
Rp347
(dp348
g19
F0.5
sg20
I4
sg21
g0
(g22
g23
(dp349
NI3
sI01
I1
stp350
Rp351
(dp352
g20
I4
sg28
Nsg29
Nsg30
Nsbsg31
I2
sg32
F5.0
sbs(g10
Vmichaeljackson
p353
tp354
g0
(g15
g2
Ntp355
Rp356
(dp357
g19
F0.5
sg20
I1
sg21
g0
(g22
g23
(dp358
NI1
stp359
Rp360
(dp361
g20
I1
sg28
Nsg29
Nsg30
Nsbsg31
I2
sg32
F2.0
sbs(g10
Vnext
p362
tp363
g0
(g15
g2
Ntp364
Rp365
(dp366
g19
F0.5
sg20
I1
sg21
g0
(g22
g23
(dp367
NI1
stp368
Rp369
(dp370
g20
I1
sg28
Nsg29
Nsg30
Nsbsg31
I2
sg32
F2.0
sbs(g10
g42
tp371
g0
(g15
g2
Ntp372
Rp373
(dp374
g19
F0.5
sg20
I1
sg21
g0
(g22
g23
(dp375
I01
I1
stp376
Rp377
(dp378
g20
I1
sg28
Nsg29
Nsg30
Nsbsg31
I2
sg32
F2.0
sbs(g8
Vgreat
p379
tp380
g0
(g15
g2
Ntp381
Rp382
(dp383
g19
F0.5
sg20
I4
sg21
g0
(g22
g23
(dp384
NI3
sI01
I1
stp385
Rp386
(dp387
g20
I4
sg28
Nsg29
Nsg30
Nsbsg31
I2
sg32
F5.0
sbs(g8
g362
tp388
g0
(g15
g2
Ntp389
Rp390
(dp391
g19
F0.5
sg20
I4
sg21
g0
(g22
g23
(dp392
NI3
sI01
I1
stp393
Rp394
(dp395
g20
I4
sg28
Nsg29
Nsg30
Nsbsg31
I2
sg32
F5.0
sbs(g9
g132
tp396
g0
(g15
g2
Ntp397
Rp398
(dp399
g19
F0.5
sg20
I2
sg21
g0
(g22
g23
(dp400
NI2
stp401
Rp402
(dp403
g20
I2
sg28
Nsg29
Nsg30
Nsbsg31
I2
sg32
F3.0
sbs(g9
Vhangover
p404
tp405
g0
(g15
g2
Ntp406
Rp407
(dp408
g19
F0.5
sg20
I2
sg21
g0
(g22
g23
(dp409
NI1
sI01
I1
stp410
Rp411
(dp412
g20
I2
sg28
Nsg29
Nsg30
Nsbsg31
I2
sg32
F3.0
sbs(g10
Vsigning
p413
tp414
g0
(g15
g2
Ntp415
Rp416
(dp417
g19
F0.5
sg20
I1
sg21
g0
(g22
g23
(dp418
NI1
stp419
Rp420
(dp421
g20
I1
sg28
Nsg29
Nsg30
Nsbsg31
I2
sg32
F2.0
sbs(g8
Valbum
p422
tp423
g0
(g15
g2
Ntp424
Rp425
(dp426
g19
F0.5
sg20
I4
sg21
g0
(g22
g23
(dp427
NI4
stp428
Rp429
(dp430
g20
I4
sg28
Nsg29
Nsg30
Nsbsg31
I2
sg32
F5.0
sbs(g10
g311
tp431
g0
(g15
g2
Ntp432
Rp433
(dp434
g19
F0.5
sg20
I1
sg21
g0
(g22
g23
(dp435
NI1
stp436
Rp437
(dp438
g20
I1
sg28
Nsg29
Nsg30
Nsbsg31
I2
sg32
F2.0
sbs(g8
Vstop
p439
tp440
g0
(g15
g2
Ntp441
Rp442
(dp443
g19
F0.5
sg20
I4
sg21
g0
(g22
g23
(dp444
NI3
sI01
I1
stp445
Rp446
(dp447
g20
I4
sg28
Nsg29
Nsg30
Nsbsg31
I2
sg32
F5.0
sbs(g9
g344
tp448
g0
(g15
g2
Ntp449
Rp450
(dp451
g19
F0.5
sg20
I2
sg21
g0
(g22
g23
(dp452
NI2
stp453
Rp454
(dp455
g20
I2
sg28
Nsg29
Nsg30
Nsbsg31
I2
sg32
F3.0
sbs(g8
Vgot
p456
tp457
g0
(g15
g2
Ntp458
Rp459
(dp460
g19
F0.5
sg20
I4
sg21
g0
(g22
g23
(dp461
NI3
sI01
I1
stp462
Rp463
(dp464
g20
I4
sg28
Nsg29
Nsg30
Nsbsg31
I2
sg32
F5.0
sbs(g9
Vdetails
p465
tp466
g0
(g15
g2
Ntp467
Rp468
(dp469
g19
F0.5
sg20
I2
sg21
g0
(g22
g23
(dp470
NI1
sI01
I1
stp471
Rp472
(dp473
g20
I2
sg28
Nsg29
Nsg30
Nsbsg31
I2
sg32
F3.0
sbs(g9
g362
tp474
g0
(g15
g2
Ntp475
Rp476
(dp477
g19
F0.5
sg20
I2
sg21
g0
(g22
g23
(dp478
NI2
stp479
Rp480
(dp481
g20
I2
sg28
Nsg29
Nsg30
Nsbsg31
I2
sg32
F3.0
sbs(g8
g51
tp482
g0
(g15
g2
Ntp483
Rp484
(dp485
g19
F0.5
sg20
I4
sg21
g0
(g22
g23
(dp486
NI3
sI01
I1
stp487
Rp488
(dp489
g20
I4
sg28
Nsg29
Nsg30
Nsbsg31
I2
sg32
F5.0
sbs(g9
g185
tp490
g0
(g15
g2
Ntp491
Rp492
(dp493
g19
F0.5
sg20
I2
sg21
g0
(g22
g23
(dp494
NI1
sI01
I1
stp495
Rp496
(dp497
g20
I2
sg28
Nsg29
Nsg30
Nsbsg31
I2
sg32
F3.0
sbs(g9
Vsale
p498
tp499
g0
(g15
g2
Ntp500
Rp501
(dp502
g19
F0.5
sg20
I2
sg21
g0
(g22
g23
(dp503
NI2
stp504
Rp505
(dp506
g20
I2
sg28
Nsg29
Nsg30
Nsbsg31
I2
sg32
F3.0
sbs(g9
Vmetallers
p507
tp508
g0
(g15
g2
Ntp509
Rp510
(dp511
g19
F0.5
sg20
I2
sg21
g0
(g22
g23
(dp512
NI1
sI01
I1
stp513
Rp514
(dp515
g20
I2
sg28
Nsg29
Nsg30
Nsbsg31
I2
sg32
F3.0
sbs(g8
Vtunes
p516
tp517
g0
(g15
g2
Ntp518
Rp519
(dp520
g19
F0.5
sg20
I4
sg21
g0
(g22
g23
(dp521
NI3
sI01
I1
stp522
Rp523
(dp524
g20
I4
sg28
Nsg29
Nsg30
Nsbsg31
I2
sg32
F5.0
sbs(g8
Vwristband
p525
tp526
g0
(g15
g2
Ntp527
Rp528
(dp529
g19
F0.5
sg20
I4
sg21
g0
(g22
g23
(dp530
NI3
sI01
I1
stp531
Rp532
(dp533
g20
I4
sg28
Nsg29
Nsg30
Nsbsg31
I2
sg32
F5.0
sbs(g10
g261
tp534
g0
(g15
g2
Ntp535
Rp536
(dp537
g19
F0.5
sg20
I1
sg21
g0
(g22
g23
(dp538
NI1
stp539
Rp540
(dp541
g20
I1
sg28
Nsg29
Nsg30
Nsbsg31
I2
sg32
F2.0
sbs(g9
Vband
p542
tp543
g0
(g15
g2
Ntp544
Rp545
(dp546
g19
F0.5
sg20
I2
sg21
g0
(g22
g23
(dp547
NI2
stp548
Rp549
(dp550
g20
I2
sg28
Nsg29
Nsg30
Nsbsg31
I2
sg32
F3.0
sbs(g9
g141
tp551
g0
(g15
g2
Ntp552
Rp553
(dp554
g19
F0.5
sg20
I2
sg21
g0
(g22
g23
(dp555
NI2
stp556
Rp557
(dp558
g20
I2
sg28
Nsg29
Nsg30
Nsbsg31
I2
sg32
F3.0
sbs(g8
Vperforming
p559
tp560
g0
(g15
g2
Ntp561
Rp562
(dp563
g19
F0.5
sg20
I4
sg21
g0
(g22
g23
(dp564
NI4
stp565
Rp566
(dp567
g20
I4
sg28
Nsg29
Nsg30
Nsbsg31
I2
sg32
F5.0
sbs(g9
Vpirate
p568
tp569
g0
(g15
g2
Ntp570
Rp571
(dp572
g19
F0.5
sg20
I2
sg21
g0
(g22
g23
(dp573
NI1
sI01
I1
stp574
Rp575
(dp576
g20
I2
sg28
Nsg29
Nsg30
Nsbsg31
I2
sg32
F3.0
sbs(g10
g456
tp577
g0
(g15
g2
Ntp578
Rp579
(dp580
g19
F0.5
sg20
I1
sg21
g0
(g22
g23
(dp581
NI1
stp582
Rp583
(dp584
g20
I1
sg28
Nsg29
Nsg30
Nsbsg31
I2
sg32
F2.0
sbs(g10
Vyorktownheights
p585
tp586
g0
(g15
g2
Ntp587
Rp588
(dp589
g19
F0.5
sg20
I1
sg21
g0
(g22
g23
(dp590
NI1
stp591
Rp592
(dp593
g20
I1
sg28
Nsg29
Nsg30
Nsbsg31
I2
sg32
F2.0
sbs(g8
Vhmvlive
p594
tp595
g0
(g15
g2
Ntp596
Rp597
(dp598
g19
F0.5
sg20
I4
sg21
g0
(g22
g23
(dp599
NI3
sI01
I1
stp600
Rp601
(dp602
g20
I4
sg28
Nsg29
Nsg30
Nsbsg31
I2
sg32
F5.0
sbs(g10
g516
tp603
g0
(g15
g2
Ntp604
Rp605
(dp606
g19
F0.5
sg20
I1
sg21
g0
(g22
g23
(dp607
NI1
stp608
Rp609
(dp610
g20
I1
sg28
Nsg29
Nsg30
Nsbsg31
I2
sg32
F2.0
sbs(g8
g185
tp611
g0
(g15
g2
Ntp612
Rp613
(dp614
g19
F0.5
sg20
I4
sg21
g0
(g22
g23
(dp615
NI4
stp616
Rp617
(dp618
g20
I4
sg28
Nsg29
Nsg30
Nsbsg31
I2
sg32
F5.0
sbs(g10
g168
tp619
g0
(g15
g2
Ntp620
Rp621
(dp622
g19
F0.5
sg20
I1
sg21
g0
(g22
g23
(dp623
I01
I1
stp624
Rp625
(dp626
g20
I1
sg28
Nsg29
Nsg30
Nsbsg31
I2
sg32
F2.0
sbs(g8
g507
tp627
g0
(g15
g2
Ntp628
Rp629
(dp630
g19
F0.5
sg20
I4
sg21
g0
(g22
g23
(dp631
NI4
stp632
Rp633
(dp634
g20
I4
sg28
Nsg29
Nsg30
Nsbsg31
I2
sg32
F5.0
sbs(g9
g516
tp635
g0
(g15
g2
Ntp636
Rp637
(dp638
g19
F0.5
sg20
I2
sg21
g0
(g22
g23
(dp639
NI2
stp640
Rp641
(dp642
g20
I2
sg28
Nsg29
Nsg30
Nsbsg31
I2
sg32
F3.0
sbs(g9
Vfaveoldskoolsong
p643
tp644
g0
(g15
g2
Ntp645
Rp646
(dp647
g19
F0.5
sg20
I2
sg21
g0
(g22
g23
(dp648
NI2
stp649
Rp650
(dp651
g20
I2
sg28
Nsg29
Nsg30
Nsbsg31
I2
sg32
F3.0
sbs(g8
g141
tp652
g0
(g15
g2
Ntp653
Rp654
(dp655
g19
F0.5
sg20
I4
sg21
g0
(g22
g23
(dp656
NI3
sI01
I1
stp657
Rp658
(dp659
g20
I4
sg28
Nsg29
Nsg30
Nsbsg31
I2
sg32
F5.0
sbs(g9
g559
tp660
g0
(g15
g2
Ntp661
Rp662
(dp663
g19
F0.5
sg20
I2
sg21
g0
(g22
g23
(dp664
NI1
sI01
I1
stp665
Rp666
(dp667
g20
I2
sg28
Nsg29
Nsg30
Nsbsg31
I2
sg32
F3.0
sbs(g9
g353
tp668
g0
(g15
g2
Ntp669
Rp670
(dp671
g19
F0.5
sg20
I2
sg21
g0
(g22
g23
(dp672
NI2
stp673
Rp674
(dp675
g20
I2
sg28
Nsg29
Nsg30
Nsbsg31
I2
sg32
F3.0
sbs(g9
g42
tp676
g0
(g15
g2
Ntp677
Rp678
(dp679
g19
F0.5
sg20
I2
sg21
g0
(g22
g23
(dp680
NI2
stp681
Rp682
(dp683
g20
I2
sg28
Nsg29
Nsg30
Nsbsg31
I2
sg32
F3.0
sbs(g8
Vamp
p684
tp685
g0
(g15
g2
Ntp686
Rp687
(dp688
g19
F0.5
sg20
I4
sg21
g0
(g22
g23
(dp689
NI4
stp690
Rp691
(dp692
g20
I4
sg28
Nsg29
Nsg30
Nsbsg31
I2
sg32
F5.0
sbs(g9
g302
tp693
g0
(g15
g2
Ntp694
Rp695
(dp696
g19
F0.5
sg20
I2
sg21
g0
(g22
g23
(dp697
NI1
sI01
I1
stp698
Rp699
(dp700
g20
I2
sg28
Nsg29
Nsg30
Nsbsg31
I2
sg32
F3.0
sbs(g8
g643
tp701
g0
(g15
g2
Ntp702
Rp703
(dp704
g19
F0.5
sg20
I4
sg21
g0
(g22
g23
(dp705
NI3
sI01
I1
stp706
Rp707
(dp708
g20
I4
sg28
Nsg29
Nsg30
Nsbsg31
I2
sg32
F5.0
sbs(g10
g60
tp709
g0
(g15
g2
Ntp710
Rp711
(dp712
g19
F0.5
sg20
I1
sg21
g0
(g22
g23
(dp713
NI1
stp714
Rp715
(dp716
g20
I1
sg28
Nsg29
Nsg30
Nsbsg31
I2
sg32
F2.0
sbs(g10
g568
tp717
g0
(g15
g2
Ntp718
Rp719
(dp720
g19
F0.5
sg20
I1
sg21
g0
(g22
g23
(dp721
NI1
stp722
Rp723
(dp724
g20
I1
sg28
Nsg29
Nsg30
Nsbsg31
I2
sg32
F2.0
sbs(g10
g643
tp725
g0
(g15
g2
Ntp726
Rp727
(dp728
g19
F0.5
sg20
I1
sg21
g0
(g22
g23
(dp729
NI1
stp730
Rp731
(dp732
g20
I1
sg28
Nsg29
Nsg30
Nsbsg31
I2
sg32
F2.0
sbs(g8
g353
tp733
g0
(g15
g2
Ntp734
Rp735
(dp736
g19
F0.5
sg20
I4
sg21
g0
(g22
g23
(dp737
NI3
sI01
I1
stp738
Rp739
(dp740
g20
I4
sg28
Nsg29
Nsg30
Nsbsg31
I2
sg32
F5.0
sbs(g9
g96
tp741
g0
(g15
g2
Ntp742
Rp743
(dp744
g19
F0.5
sg20
I2
sg21
g0
(g22
g23
(dp745
NI2
stp746
Rp747
(dp748
g20
I2
sg28
Nsg29
Nsg30
Nsbsg31
I2
sg32
F3.0
sbs(g9
g105
tp749
g0
(g15
g2
Ntp750
Rp751
(dp752
g19
F0.5
sg20
I2
sg21
g0
(g22
g23
(dp753
NI2
stp754
Rp755
(dp756
g20
I2
sg28
Nsg29
Nsg30
Nsbsg31
I2
sg32
F3.0
sbs(g10
g344
tp757
g0
(g15
g2
Ntp758
Rp759
(dp760
g19
F0.5
sg20
I1
sg21
g0
(g22
g23
(dp761
NI1
stp762
Rp763
(dp764
g20
I1
sg28
Nsg29
Nsg30
Nsbsg31
I2
sg32
F2.0
sbs(g10
g498
tp765
g0
(g15
g2
Ntp766
Rp767
(dp768
g19
F0.5
sg20
I1
sg21
g0
(g22
g23
(dp769
NI1
stp770
Rp771
(dp772
g20
I1
sg28
Nsg29
Nsg30
Nsbsg31
I2
sg32
F2.0
sbs(g9
Vyesterday
p773
tp774
g0
(g15
g2
Ntp775
Rp776
(dp777
g19
F0.5
sg20
I2
sg21
g0
(g22
g23
(dp778
NI2
stp779
Rp780
(dp781
g20
I2
sg28
Nsg29
Nsg30
Nsbsg31
I2
sg32
F3.0
sbs(g10
g465
tp782
g0
(g15
g2
Ntp783
Rp784
(dp785
g19
F0.5
sg20
I1
sg21
g0
(g22
g23
(dp786
NI1
stp787
Rp788
(dp789
g20
I1
sg28
Nsg29
Nsg30
Nsbsg31
I2
sg32
F2.0
sbs(g8
Vget
p790
tp791
g0
(g15
g2
Ntp792
Rp793
(dp794
g19
F0.5
sg20
I4
sg21
g0
(g22
g23
(dp795
NI3
sI01
I1
stp796
Rp797
(dp798
g20
I4
sg28
Nsg29
Nsg30
Nsbsg31
I2
sg32
F5.0
sbs(g8
g302
tp799
g0
(g15
g2
Ntp800
Rp801
(dp802
g19
F0.5
sg20
I4
sg21
g0
(g22
g23
(dp803
NI4
stp804
Rp805
(dp806
g20
I4
sg28
Nsg29
Nsg30
Nsbsg31
I2
sg32
F5.0
sbs(g9
g159
tp807
g0
(g15
g2
Ntp808
Rp809
(dp810
g19
F0.5
sg20
I2
sg21
g0
(g22
g23
(dp811
NI1
sI01
I1
stp812
Rp813
(dp814
g20
I2
sg28
Nsg29
Nsg30
Nsbsg31
I2
sg32
F3.0
sbs(g10
Vnjhmv
p815
tp816
g0
(g15
g2
Ntp817
Rp818
(dp819
g19
F0.5
sg20
I1
sg21
g0
(g22
g23
(dp820
NI1
stp821
Rp822
(dp823
g20
I1
sg28
Nsg29
Nsg30
Nsbsg31
I2
sg32
F2.0
sbs(g8
g227
tp824
g0
(g15
g2
Ntp825
Rp826
(dp827
g19
F0.5
sg20
I4
sg21
g0
(g22
g23
(dp828
NI4
stp829
Rp830
(dp831
g20
I4
sg28
Nsg29
Nsg30
Nsbsg31
I2
sg32
F5.0
sbs(g10
g252
tp832
g0
(g15
g2
Ntp833
Rp834
(dp835
g19
F0.5
sg20
I1
sg21
g0
(g22
g23
(dp836
NI1
stp837
Rp838
(dp839
g20
I1
sg28
Nsg29
Nsg30
Nsbsg31
I2
sg32
F2.0
sbs(g8
g773
tp840
g0
(g15
g2
Ntp841
Rp842
(dp843
g19
F0.5
sg20
I4
sg21
g0
(g22
g23
(dp844
NI3
sI01
I1
stp845
Rp846
(dp847
g20
I4
sg28
Nsg29
Nsg30
Nsbsg31
I2
sg32
F5.0
sbs(g8
Vcovering
p848
tp849
g0
(g15
g2
Ntp850
Rp851
(dp852
g19
F0.5
sg20
I4
sg21
g0
(g22
g23
(dp853
NI4
stp854
Rp855
(dp856
g20
I4
sg28
Nsg29
Nsg30
Nsbsg31
I2
sg32
F5.0
sbs(g9
g114
tp857
g0
(g15
g2
Ntp858
Rp859
(dp860
g19
F0.5
sg20
I2
sg21
g0
(g22
g23
(dp861
NI2
stp862
Rp863
(dp864
g20
I2
sg28
Nsg29
Nsg30
Nsbsg31
I2
sg32
F3.0
sbs(g9
g60
tp865
g0
(g15
g2
Ntp866
Rp867
(dp868
g19
F0.5
sg20
I2
sg21
g0
(g22
g23
(dp869
NI2
stp870
Rp871
(dp872
g20
I2
sg28
Nsg29
Nsg30
Nsbsg31
I2
sg32
F3.0
sbs(g10
g559
tp873
g0
(g15
g2
Ntp874
Rp875
(dp876
g19
F0.5
sg20
I1
sg21
g0
(g22
g23
(dp877
NI1
stp878
Rp879
(dp880
g20
I1
sg28
Nsg29
Nsg30
Nsbsg31
I2
sg32
F2.0
sbs(g8
g261
tp881
g0
(g15
g2
Ntp882
Rp883
(dp884
g19
F0.5
sg20
I4
sg21
g0
(g22
g23
(dp885
NI3
sI01
I1
stp886
Rp887
(dp888
g20
I4
sg28
Nsg29
Nsg30
Nsbsg31
I2
sg32
F5.0
sbs(g9
g413
tp889
g0
(g15
g2
Ntp890
Rp891
(dp892
g19
F0.5
sg20
I2
sg21
g0
(g22
g23
(dp893
NI1
sI01
I1
stp894
Rp895
(dp896
g20
I2
sg28
Nsg29
Nsg30
Nsbsg31
I2
sg32
F3.0
sbs(g9
V70s
p897
tp898
g0
(g15
g2
Ntp899
Rp900
(dp901
g19
F0.5
sg20
I2
sg21
g0
(g22
g23
(dp902
NI2
stp903
Rp904
(dp905
g20
I2
sg28
Nsg29
Nsg30
Nsbsg31
I2
sg32
F3.0
sbs(g9
g848
tp906
g0
(g15
g2
Ntp907
Rp908
(dp909
g19
F0.5
sg20
I2
sg21
g0
(g22
g23
(dp910
NI1
sI01
I1
stp911
Rp912
(dp913
g20
I2
sg28
Nsg29
Nsg30
Nsbsg31
I2
sg32
F3.0
sbs(g10
g439
tp914
g0
(g15
g2
Ntp915
Rp916
(dp917
g19
F0.5
sg20
I1
sg21
g0
(g22
g23
(dp918
NI1
stp919
Rp920
(dp921
g20
I1
sg28
Nsg29
Nsg30
Nsbsg31
I2
sg32
F2.0
sbs(g9
g168
tp922
g0
(g15
g2
Ntp923
Rp924
(dp925
g19
F0.5
sg20
I2
sg21
g0
(g22
g23
(dp926
NI2
stp927
Rp928
(dp929
g20
I2
sg28
Nsg29
Nsg30
Nsbsg31
I2
sg32
F3.0
sbs(g10
g105
tp930
g0
(g15
g2
Ntp931
Rp932
(dp933
g19
F0.5
sg20
I1
sg21
g0
(g22
g23
(dp934
NI1
stp935
Rp936
(dp937
g20
I1
sg28
Nsg29
Nsg30
Nsbsg31
I2
sg32
F2.0
sbs(g9
g456
tp938
g0
(g15
g2
Ntp939
Rp940
(dp941
g19
F0.5
sg20
I2
sg21
g0
(g22
g23
(dp942
NI2
stp943
Rp944
(dp945
g20
I2
sg28
Nsg29
Nsg30
Nsbsg31
I2
sg32
F3.0
sbs(g8
g78
tp946
g0
(g15
g2
Ntp947
Rp948
(dp949
g19
F0.5
sg20
I4
sg21
g0
(g22
g23
(dp950
NI3
sI01
I1
stp951
Rp952
(dp953
g20
I4
sg28
Nsg29
Nsg30
Nsbsg31
I2
sg32
F5.0
sbs(g8
g413
tp954
g0
(g15
g2
Ntp955
Rp956
(dp957
g19
F0.5
sg20
I4
sg21
g0
(g22
g23
(dp958
NI4
stp959
Rp960
(dp961
g20
I4
sg28
Nsg29
Nsg30
Nsbsg31
I2
sg32
F5.0
sbs(g8
g897
tp962
g0
(g15
g2
Ntp963
Rp964
(dp965
g19
F0.5
sg20
I4
sg21
g0
(g22
g23
(dp966
NI3
sI01
I1
stp967
Rp968
(dp969
g20
I4
sg28
Nsg29
Nsg30
Nsbsg31
I2
sg32
F5.0
sbs(g10
g773
tp970
g0
(g15
g2
Ntp971
Rp972
(dp973
g19
F0.5
sg20
I1
sg21
g0
(g22
g23
(dp974
NI1
stp975
Rp976
(dp977
g20
I1
sg28
Nsg29
Nsg30
Nsbsg31
I2
sg32
F2.0
sbs(g9
Vsolo
p978
tp979
g0
(g15
g2
Ntp980
Rp981
(dp982
g19
F0.5
sg20
I2
sg21
g0
(g22
g23
(dp983
NI1
sI01
I1
stp984
Rp985
(dp986
g20
I2
sg28
Nsg29
Nsg30
Nsbsg31
I2
sg32
F3.0
sbs(g8
g404
tp987
g0
(g15
g2
Ntp988
Rp989
(dp990
g19
F0.5
sg20
I4
sg21
g0
(g22
g23
(dp991
NI4
stp992
Rp993
(dp994
g20
I4
sg28
Nsg29
Nsg30
Nsbsg31
I2
sg32
F5.0
sbs(g10
g379
tp995
g0
(g15
g2
Ntp996
Rp997
(dp998
g19
F0.5
sg20
I1
sg21
g0
(g22
g23
(dp999
NI1
stp1000
Rp1001
(dp1002
g20
I1
sg28
Nsg29
Nsg30
Nsbsg31
I2
sg32
F2.0
sbs(g10
g114
tp1003
g0
(g15
g2
Ntp1004
Rp1005
(dp1006
g19
F0.5
sg20
I1
sg21
g0
(g22
g23
(dp1007
I01
I1
stp1008
Rp1009
(dp1010
g20
I1
sg28
Nsg29
Nsg30
Nsbsg31
I2
sg32
F2.0
sbs(g8
g815
tp1011
g0
(g15
g2
Ntp1012
Rp1013
(dp1014
g19
F0.5
sg20
I4
sg21
g0
(g22
g23
(dp1015
NI3
sI01
I1
stp1016
Rp1017
(dp1018
g20
I4
sg28
Nsg29
Nsg30
Nsbsg31
I2
sg32
F5.0
sbs(g8
Vtrailer
p1019
tp1020
g0
(g15
g2
Ntp1021
Rp1022
(dp1023
g19
F0.5
sg20
I4
sg21
g0
(g22
g23
(dp1024
NI4
stp1025
Rp1026
(dp1027
g20
I4
sg28
Nsg29
Nsg30
Nsbsg31
I2
sg32
F5.0
sbs(g9
g311
tp1028
g0
(g15
g2
Ntp1029
Rp1030
(dp1031
g19
F0.5
sg20
I2
sg21
g0
(g22
g23
(dp1032
NI2
stp1033
Rp1034
(dp1035
g20
I2
sg28
Nsg29
Nsg30
Nsbsg31
I2
sg32
F3.0
sbs(g10
g684
tp1036
g0
(g15
g2
Ntp1037
Rp1038
(dp1039
g19
F0.5
sg20
I1
sg21
g0
(g22
g23
(dp1040
NI1
stp1041
Rp1042
(dp1043
g20
I1
sg28
Nsg29
Nsg30
Nsbsg31
I2
sg32
F2.0
sbs(g10
Vtreysongzathmv
p1044
tp1045
g0
(g15
g2
Ntp1046
Rp1047
(dp1048
g19
F0.5
sg20
I1
sg21
g0
(g22
g23
(dp1049
NI1
stp1050
Rp1051
(dp1052
g20
I1
sg28
Nsg29
Nsg30
Nsbsg31
I2
sg32
F2.0
sbs(g8
g13
tp1053
g0
(g15
g2
Ntp1054
Rp1055
(dp1056
g19
F0.5
sg20
I4
sg21
g0
(g22
g23
(dp1057
NI3
sI01
I1
stp1058
Rp1059
(dp1060
g20
I4
sg28
Nsg29
Nsg30
Nsbsg31
I2
sg32
F5.0
sbs(g8
g465
tp1061
g0
(g15
g2
Ntp1062
Rp1063
(dp1064
g19
F0.5
sg20
I4
sg21
g0
(g22
g23
(dp1065
NI4
stp1066
Rp1067
(dp1068
g20
I4
sg28
Nsg29
Nsg30
Nsbsg31
I2
sg32
F5.0
sbs(g8
g498
tp1069
g0
(g15
g2
Ntp1070
Rp1071
(dp1072
g19
F0.5
sg20
I4
sg21
g0
(g22
g23
(dp1073
NI3
sI01
I1
stp1074
Rp1075
(dp1076
g20
I4
sg28
Nsg29
Nsg30
Nsbsg31
I2
sg32
F5.0
sbs(g8
g1044
tp1077
g0
(g15
g2
Ntp1078
Rp1079
(dp1080
g19
F0.5
sg20
I4
sg21
g0
(g22
g23
(dp1081
NI3
sI01
I1
stp1082
Rp1083
(dp1084
g20
I4
sg28
Nsg29
Nsg30
Nsbsg31
I2
sg32
F5.0
sbs(g8
g978
tp1085
g0
(g15
g2
Ntp1086
Rp1087
(dp1088
g19
F0.5
sg20
I4
sg21
g0
(g22
g23
(dp1089
NI4
stp1090
Rp1091
(dp1092
g20
I4
sg28
Nsg29
Nsg30
Nsbsg31
I2
sg32
F5.0
sbs(g9
g210
tp1093
g0
(g15
g2
Ntp1094
Rp1095
(dp1096
g19
F0.5
sg20
I2
sg21
g0
(g22
g23
(dp1097
NI2
stp1098
Rp1099
(dp1100
g20
I2
sg28
Nsg29
Nsg30
Nsbsg31
I2
sg32
F3.0
sbs(g10
g1019
tp1101
g0
(g15
g2
Ntp1102
Rp1103
(dp1104
g19
F0.5
sg20
I1
sg21
g0
(g22
g23
(dp1105
I01
I1
stp1106
Rp1107
(dp1108
g20
I1
sg28
Nsg29
Nsg30
Nsbsg31
I2
sg32
F2.0
sbs(g9
g815
tp1109
g0
(g15
g2
Ntp1110
Rp1111
(dp1112
g19
F0.5
sg20
I2
sg21
g0
(g22
g23
(dp1113
NI2
stp1114
Rp1115
(dp1116
g20
I2
sg28
Nsg29
Nsg30
Nsbsg31
I2
sg32
F3.0
sbs(g10
Vweek
p1117
tp1118
g0
(g15
g2
Ntp1119
Rp1120
(dp1121
g19
F0.5
sg20
I1
sg21
g0
(g22
g23
(dp1122
NI1
stp1123
Rp1124
(dp1125
g20
I1
sg28
Nsg29
Nsg30
Nsbsg31
I2
sg32
F2.0
sbs(g10
Vget
p1126
tp1127
g0
(g15
g2
Ntp1128
Rp1129
(dp1130
g19
F0.5
sg20
I1
sg21
g0
(g22
g23
(dp1131
NI1
stp1132
Rp1133
(dp1134
g20
I1
sg28
Nsg29
Nsg30
Nsbsg31
I2
sg32
F2.0
sbs(g9
g1019
tp1135
g0
(g15
g2
Ntp1136
Rp1137
(dp1138
g19
F0.5
sg20
I2
sg21
g0
(g22
g23
(dp1139
NI2
stp1140
Rp1141
(dp1142
g20
I2
sg28
Nsg29
Nsg30
Nsbsg31
I2
sg32
F3.0
sbs(g8
g568
tp1143
g0
(g15
g2
Ntp1144
Rp1145
(dp1146
g19
F0.5
sg20
I4
sg21
g0
(g22
g23
(dp1147
NI4
stp1148
Rp1149
(dp1150
g20
I4
sg28
Nsg29
Nsg30
Nsbsg31
I2
sg32
F5.0
sbs(g10
g404
tp1151
g0
(g15
g2
Ntp1152
Rp1153
(dp1154
g19
F0.5
sg20
I1
sg21
g0
(g22
g23
(dp1155
NI1
stp1156
Rp1157
(dp1158
g20
I1
sg28
Nsg29
Nsg30
Nsbsg31
I2
sg32
F2.0
sbs(g10
g897
tp1159
g0
(g15
g2
Ntp1160
Rp1161
(dp1162
g19
F0.5
sg20
I1
sg21
g0
(g22
g23
(dp1163
NI1
stp1164
Rp1165
(dp1166
g20
I1
sg28
Nsg29
Nsg30
Nsbsg31
I2
sg32
F2.0
sbs(g10
g542
tp1167
g0
(g15
g2
Ntp1168
Rp1169
(dp1170
g19
F0.5
sg20
I1
sg21
g0
(g22
g23
(dp1171
I01
I1
stp1172
Rp1173
(dp1174
g20
I1
sg28
Nsg29
Nsg30
Nsbsg31
I2
sg32
F2.0
sbs(g9
g379
tp1175
g0
(g15
g2
Ntp1176
Rp1177
(dp1178
g19
F0.5
sg20
I2
sg21
g0
(g22
g23
(dp1179
NI2
stp1180
Rp1181
(dp1182
g20
I2
sg28
Nsg29
Nsg30
Nsbsg31
I2
sg32
F3.0
sbs(g9
g1044
tp1183
g0
(g15
g2
Ntp1184
Rp1185
(dp1186
g19
F0.5
sg20
I2
sg21
g0
(g22
g23
(dp1187
NI2
stp1188
Rp1189
(dp1190
g20
I2
sg28
Nsg29
Nsg30
Nsbsg31
I2
sg32
F3.0
sbs(g9
g594
tp1191
g0
(g15
g2
Ntp1192
Rp1193
(dp1194
g19
F0.5
sg20
I2
sg21
g0
(g22
g23
(dp1195
NI2
stp1196
Rp1197
(dp1198
g20
I2
sg28
Nsg29
Nsg30
Nsbsg31
I2
sg32
F3.0
sbs(g9
Vgone
p1199
tp1200
g0
(g15
g2
Ntp1201
Rp1202
(dp1203
g19
F0.5
sg20
I2
sg21
g0
(g22
g23
(dp1204
NI2
stp1205
Rp1206
(dp1207
g20
I2
sg28
Nsg29
Nsg30
Nsbsg31
I2
sg32
F3.0
sbs(g9
g422
tp1208
g0
(g15
g2
Ntp1209
Rp1210
(dp1211
g19
F0.5
sg20
I2
sg21
g0
(g22
g23
(dp1212
NI1
sI01
I1
stp1213
Rp1214
(dp1215
g20
I2
sg28
Nsg29
Nsg30
Nsbsg31
I2
sg32
F3.0
sbs(g9
g1126
tp1216
g0
(g15
g2
Ntp1217
Rp1218
(dp1219
g19
F0.5
sg20
I2
sg21
g0
(g22
g23
(dp1220
NI1
sI01
I1
stp1221
Rp1222
(dp1223
g20
I2
sg28
Nsg29
Nsg30
Nsbsg31
I2
sg32
F3.0
sbs(g9
g585
tp1224
g0
(g15
g2
Ntp1225
Rp1226
(dp1227
g19
F0.5
sg20
I2
sg21
g0
(g22
g23
(dp1228
NI1
sI01
I1
stp1229
Rp1230
(dp1231
g20
I2
sg28
Nsg29
Nsg30
Nsbsg31
I2
sg32
F3.0
sbs(g10
g1199
tp1232
g0
(g15
g2
Ntp1233
Rp1234
(dp1235
g19
F0.5
sg20
I1
sg21
g0
(g22
g23
(dp1236
NI1
stp1237
Rp1238
(dp1239
g20
I1
sg28
Nsg29
Nsg30
Nsbsg31
I2
sg32
F2.0
sbs(g9
g69
tp1240
g0
(g15
g2
Ntp1241
Rp1242
(dp1243
g19
F0.5
sg20
I2
sg21
g0
(g22
g23
(dp1244
NI2
stp1245
Rp1246
(dp1247
g20
I2
sg28
Nsg29
Nsg30
Nsbsg31
I2
sg32
F3.0
sbs(g8
g33
tp1248
g0
(g15
g2
Ntp1249
Rp1250
(dp1251
g19
F0.5
sg20
I4
sg21
g0
(g22
g23
(dp1252
NI3
sI01
I1
stp1253
Rp1254
(dp1255
g20
I4
sg28
Nsg29
Nsg30
Nsbsg31
I2
sg32
F5.0
sbs(g10
g507
tp1256
g0
(g15
g2
Ntp1257
Rp1258
(dp1259
g19
F0.5
sg20
I1
sg21
g0
(g22
g23
(dp1260
NI1
stp1261
Rp1262
(dp1263
g20
I1
sg28
Nsg29
Nsg30
Nsbsg31
I2
sg32
F2.0
sbs(g8
g1199
tp1264
g0
(g15
g2
Ntp1265
Rp1266
(dp1267
g19
F0.5
sg20
I4
sg21
g0
(g22
g23
(dp1268
NI3
sI01
I1
stp1269
Rp1270
(dp1271
g20
I4
sg28
Nsg29
Nsg30
Nsbsg31
I2
sg32
F5.0
sbs(g9
g1117
tp1272
g0
(g15
g2
Ntp1273
Rp1274
(dp1275
g19
F0.5
sg20
I2
sg21
g0
(g22
g23
(dp1276
NI2
stp1277
Rp1278
(dp1279
g20
I2
sg28
Nsg29
Nsg30
Nsbsg31
I2
sg32
F3.0
sbs(g10
g594
tp1280
g0
(g15
g2
Ntp1281
Rp1282
(dp1283
g19
F0.5
sg20
I1
sg21
g0
(g22
g23
(dp1284
NI1
stp1285
Rp1286
(dp1287
g20
I1
sg28
Nsg29
Nsg30
Nsbsg31
I2
sg32
F2.0
sbs(g8
g585
tp1288
g0
(g15
g2
Ntp1289
Rp1290
(dp1291
g19
F0.5
sg20
I4
sg21
g0
(g22
g23
(dp1292
NI4
stp1293
Rp1294
(dp1295
g20
I4
sg28
Nsg29
Nsg30
Nsbsg31
I2
sg32
F5.0
sbs(g9
g684
tp1296
g0
(g15
g2
Ntp1297
Rp1298
(dp1299
g19
F0.5
sg20
I2
sg21
g0
(g22
g23
(dp1300
NI1
sI01
I1
stp1301
Rp1302
(dp1303
g20
I2
sg28
Nsg29
Nsg30
Nsbsg31
I2
sg32
F3.0
sbs(g9
g525
tp1304
g0
(g15
g2
Ntp1305
Rp1306
(dp1307
g19
F0.5
sg20
I2
sg21
g0
(g22
g23
(dp1308
NI2
stp1309
Rp1310
(dp1311
g20
I2
sg28
Nsg29
Nsg30
Nsbsg31
I2
sg32
F3.0
sbs(g9
g439
tp1312
g0
(g15
g2
Ntp1313
Rp1314
(dp1315
g19
F0.5
sg20
I2
sg21
g0
(g22
g23
(dp1316
NI2
stp1317
Rp1318
(dp1319
g20
I2
sg28
Nsg29
Nsg30
Nsbsg31
I2
sg32
F3.0
sbs(g8
g542
tp1320
g0
(g15
g2
Ntp1321
Rp1322
(dp1323
g19
F0.5
sg20
I4
sg21
g0
(g22
g23
(dp1324
NI4
stp1325
Rp1326
(dp1327
g20
I4
sg28
Nsg29
Nsg30
Nsbsg31
I2
sg32
F5.0
sbs(g10
g848
tp1328
g0
(g15
g2
Ntp1329
Rp1330
(dp1331
g19
F0.5
sg20
I1
sg21
g0
(g22
g23
(dp1332
NI1
stp1333
Rp1334
(dp1335
g20
I1
sg28
Nsg29
Nsg30
Nsbsg31
I2
sg32
F2.0
sbs(g8
g69
tp1336
g0
(g15
g2
Ntp1337
Rp1338
(dp1339
g19
F0.5
sg20
I4
sg21
g0
(g22
g23
(dp1340
NI3
sI01
I1
stp1341
Rp1342
(dp1343
g20
I4
sg28
Nsg29
Nsg30
Nsbsg31
I2
sg32
F5.0
sbs(g10
g422
tp1344
g0
(g15
g2
Ntp1345
Rp1346
(dp1347
g19
F0.5
sg20
I1
sg21
g0
(g22
g23
(dp1348
NI1
stp1349
Rp1350
(dp1351
g20
I1
sg28
Nsg29
Nsg30
Nsbsg31
I2
sg32
F2.0
sbs(g10
g227
tp1352
g0
(g15
g2
Ntp1353
Rp1354
(dp1355
g19
F0.5
sg20
I1
sg21
g0
(g22
g23
(dp1356
I01
I1
stp1357
Rp1358
(dp1359
g20
I1
sg28
Nsg29
Nsg30
Nsbsg31
I2
sg32
F2.0
sbs(g10
g525
tp1360
g0
(g15
g2
Ntp1361
Rp1362
(dp1363
g19
F0.5
sg20
I1
sg21
g0
(g22
g23
(dp1364
NI1
stp1365
Rp1366
(dp1367
g20
I1
sg28
Nsg29
Nsg30
Nsbsg31
I2
sg32
F2.0
sbs(g10
g33
tp1368
g0
(g15
g2
Ntp1369
Rp1370
(dp1371
g19
F0.5
sg20
I1
sg21
g0
(g22
g23
(dp1372
NI1
stp1373
Rp1374
(dp1375
g20
I1
sg28
Nsg29
Nsg30
Nsbsg31
I2
sg32
F2.0
sbs(g10
g210
tp1376
g0
(g15
g2
Ntp1377
Rp1378
(dp1379
g19
F0.5
sg20
I1
sg21
g0
(g22
g23
(dp1380
NI1
stp1381
Rp1382
(dp1383
g20
I1
sg28
Nsg29
Nsg30
Nsbsg31
I2
sg32
F2.0
sbs(g8
g1117
tp1384
g0
(g15
g2
Ntp1385
Rp1386
(dp1387
g19
F0.5
sg20
I4
sg21
g0
(g22
g23
(dp1388
NI3
sI01
I1
stp1389
Rp1390
(dp1391
g20
I4
sg28
Nsg29
Nsg30
Nsbsg31
I2
sg32
F5.0
sbs(g10
g978
tp1392
g0
(g15
g2
Ntp1393
Rp1394
(dp1395
g19
F0.5
sg20
I1
sg21
g0
(g22
g23
(dp1396
NI1
stp1397
Rp1398
(dp1399
g20
I1
sg28
Nsg29
Nsg30
Nsbsg31
I2
sg32
F2.0
sbssS'_label_probdist'
p1400
g0
(g15
g2
Ntp1401
Rp1402
(dp1403
g19
F0.5
sg20
I7
sg21
g0
(g22
g23
(dp1404
g8
I4
sg9
I2
sg10
I1
stp1405
Rp1406
(dp1407
g20
I7
sg28
Nsg29
(lp1408
(g8
I4
tp1409
a(g9
I2
tp1410
a(g10
I1
tp1411
asg30
Nsbsg31
I3
sg32
F8.5
sbsb.