ccopy_reg
_reconstructor
p0
(cnltk.classify.naivebayes
NaiveBayesClassifier
p1
c__builtin__
object
p2
Ntp3
Rp4
(dp5
S'_labels'
p6
(lp7
V Tablet
p8
aVPhone
p9
aV Laptop
p10
asS'_feature_probdist'
p11
(dp12
(g8
Vtenerife
p13
tp14
g0
(cnltk.probability
ELEProbDist
p15
g2
Ntp16
Rp17
(dp18
S'_gamma'
p19
F0.5
sS'_N'
p20
I2
sS'_freqdist'
p21
g0
(cnltk.probability
FreqDist
p22
c__builtin__
dict
p23
(dp24
NI1
sI01
I1
stp25
Rp26
(dp27
g20
I2
sS'_max_cache'
p28
NsS'_item_cache'
p29
NsS'_Nr_cache'
p30
NsbsS'_bins'
p31
I2
sS'_divisor'
p32
F3.0
sbs(g9
Vsuperhero
p33
tp34
g0
(g15
g2
Ntp35
Rp36
(dp37
g19
F0.5
sg20
I2
sg21
g0
(g22
g23
(dp38
NI1
sI01
I1
stp39
Rp40
(dp41
g20
I2
sg28
Nsg29
Nsg30
Nsbsg31
I2
sg32
F3.0
sbs(g10
Vscorchio
p42
tp43
g0
(g15
g2
Ntp44
Rp45
(dp46
g19
F0.5
sg20
I1
sg21
g0
(g22
g23
(dp47
NI1
stp48
Rp49
(dp50
g20
I1
sg28
Nsg29
Nsg30
Nsbsg31
I2
sg32
F2.0
sbs(g8
Vhols
p51
tp52
g0
(g15
g2
Ntp53
Rp54
(dp55
g19
F0.5
sg20
I2
sg21
g0
(g22
g23
(dp56
NI1
sI01
I1
stp57
Rp58
(dp59
g20
I2
sg28
Nsg29
Nsg30
Nsbsg31
I2
sg32
F3.0
sbs(g10
Vgreat
p60
tp61
g0
(g15
g2
Ntp62
Rp63
(dp64
g19
F0.5
sg20
I1
sg21
g0
(g22
g23
(dp65
NI1
stp66
Rp67
(dp68
g20
I1
sg28
Nsg29
Nsg30
Nsbsg31
I2
sg32
F2.0
sbs(g8
Vsee
p69
tp70
g0
(g15
g2
Ntp71
Rp72
(dp73
g19
F0.5
sg20
I2
sg21
g0
(g22
g23
(dp74
NI2
stp75
Rp76
(dp77
g20
I2
sg28
Nsg29
Nsg30
Nsbsg31
I2
sg32
F3.0
sbs(g10
Valbum
p78
tp79
g0
(g15
g2
Ntp80
Rp81
(dp82
g19
F0.5
sg20
I1
sg21
g0
(g22
g23
(dp83
NI1
stp84
Rp85
(dp86
g20
I1
sg28
Nsg29
Nsg30
Nsbsg31
I2
sg32
F2.0
sbs(g8
Vtrailer
p87
tp88
g0
(g15
g2
Ntp89
Rp90
(dp91
g19
F0.5
sg20
I2
sg21
g0
(g22
g23
(dp92
NI2
stp93
Rp94
(dp95
g20
I2
sg28
Nsg29
Nsg30
Nsbsg31
I2
sg32
F3.0
sbs(g10
g13
tp96
g0
(g15
g2
Ntp97
Rp98
(dp99
g19
F0.5
sg20
I1
sg21
g0
(g22
g23
(dp100
NI1
stp101
Rp102
(dp103
g20
I1
sg28
Nsg29
Nsg30
Nsbsg31
I2
sg32
F2.0
sbs(g10
Vaction
p104
tp105
g0
(g15
g2
Ntp106
Rp107
(dp108
g19
F0.5
sg20
I1
sg21
g0
(g22
g23
(dp109
I01
I1
stp110
Rp111
(dp112
g20
I1
sg28
Nsg29
Nsg30
Nsbsg31
I2
sg32
F2.0
sbs(g8
Vkeaton
p113
tp114
g0
(g15
g2
Ntp115
Rp116
(dp117
g19
F0.5
sg20
I2
sg21
g0
(g22
g23
(dp118
NI2
stp119
Rp120
(dp121
g20
I2
sg28
Nsg29
Nsg30
Nsbsg31
I2
sg32
F3.0
sbs(g8
Vhmvlive
p122
tp123
g0
(g15
g2
Ntp124
Rp125
(dp126
g19
F0.5
sg20
I2
sg21
g0
(g22
g23
(dp127
NI2
stp128
Rp129
(dp130
g20
I2
sg28
Nsg29
Nsg30
Nsbsg31
I2
sg32
F3.0
sbs(g10
Vthecroods
p131
tp132
g0
(g15
g2
Ntp133
Rp134
(dp135
g19
F0.5
sg20
I1
sg21
g0
(g22
g23
(dp136
NI1
stp137
Rp138
(dp139
g20
I1
sg28
Nsg29
Nsg30
Nsbsg31
I2
sg32
F2.0
sbs(g9
Vbatman
p140
tp141
g0
(g15
g2
Ntp142
Rp143
(dp144
g19
F0.5
sg20
I2
sg21
g0
(g22
g23
(dp145
NI1
sI01
I1
stp146
Rp147
(dp148
g20
I2
sg28
Nsg29
Nsg30
Nsbsg31
I2
sg32
F3.0
sbs(g9
Vmiss
p149
tp150
g0
(g15
g2
Ntp151
Rp152
(dp153
g19
F0.5
sg20
I2
sg21
g0
(g22
g23
(dp154
NI1
sI01
I1
stp155
Rp156
(dp157
g20
I2
sg28
Nsg29
Nsg30
Nsbsg31
I2
sg32
F3.0
sbs(g10
V_london
p158
tp159
g0
(g15
g2
Ntp160
Rp161
(dp162
g19
F0.5
sg20
I1
sg21
g0
(g22
g23
(dp163
NI1
stp164
Rp165
(dp166
g20
I1
sg28
Nsg29
Nsg30
Nsbsg31
I2
sg32
F2.0
sbs(g10
g51
tp167
g0
(g15
g2
Ntp168
Rp169
(dp170
g19
F0.5
sg20
I1
sg21
g0
(g22
g23
(dp171
NI1
stp172
Rp173
(dp174
g20
I1
sg28
Nsg29
Nsg30
Nsbsg31
I2
sg32
F2.0
sbs(g8
g78
tp175
g0
(g15
g2
Ntp176
Rp177
(dp178
g19
F0.5
sg20
I2
sg21
g0
(g22
g23
(dp179
NI1
sI01
I1
stp180
Rp181
(dp182
g20
I2
sg28
Nsg29
Nsg30
Nsbsg31
I2
sg32
F3.0
sbs(g10
Vwinner
p183
tp184
g0
(g15
g2
Ntp185
Rp186
(dp187
g19
F0.5
sg20
I1
sg21
g0
(g22
g23
(dp188
NI1
stp189
Rp190
(dp191
g20
I1
sg28
Nsg29
Nsg30
Nsbsg31
I2
sg32
F2.0
sbs(g10
g87
tp192
g0
(g15
g2
Ntp193
Rp194
(dp195
g19
F0.5
sg20
I1
sg21
g0
(g22
g23
(dp196
NI1
stp197
Rp198
(dp199
g20
I1
sg28
Nsg29
Nsg30
Nsbsg31
I2
sg32
F2.0
sbs(g9
Voffer
p200
tp201
g0
(g15
g2
Ntp202
Rp203
(dp204
g19
F0.5
sg20
I2
sg21
g0
(g22
g23
(dp205
NI1
sI01
I1
stp206
Rp207
(dp208
g20
I2
sg28
Nsg29
Nsg30
Nsbsg31
I2
sg32
F3.0
sbs(g8
Vyorktownheights
p209
tp210
g0
(g15
g2
Ntp211
Rp212
(dp213
g19
F0.5
sg20
I2
sg21
g0
(g22
g23
(dp214
NI1
sI01
I1
stp215
Rp216
(dp217
g20
I2
sg28
Nsg29
Nsg30
Nsbsg31
I2
sg32
F3.0
sbs(g9
g183
tp218
g0
(g15
g2
Ntp219
Rp220
(dp221
g19
F0.5
sg20
I2
sg21
g0
(g22
g23
(dp222
NI2
stp223
Rp224
(dp225
g20
I2
sg28
Nsg29
Nsg30
Nsbsg31
I2
sg32
F3.0
sbs(g10
g122
tp226
g0
(g15
g2
Ntp227
Rp228
(dp229
g19
F0.5
sg20
I1
sg21
g0
(g22
g23
(dp230
I01
I1
stp231
Rp232
(dp233
g20
I1
sg28
Nsg29
Nsg30
Nsbsg31
I2
sg32
F2.0
sbs(g10
Vamp
p234
tp235
g0
(g15
g2
Ntp236
Rp237
(dp238
g19
F0.5
sg20
I1
sg21
g0
(g22
g23
(dp239
NI1
stp240
Rp241
(dp242
g20
I1
sg28
Nsg29
Nsg30
Nsbsg31
I2
sg32
F2.0
sbs(g8
Vcomp
p243
tp244
g0
(g15
g2
Ntp245
Rp246
(dp247
g19
F0.5
sg20
I2
sg21
g0
(g22
g23
(dp248
NI1
sI01
I1
stp249
Rp250
(dp251
g20
I2
sg28
Nsg29
Nsg30
Nsbsg31
I2
sg32
F3.0
sbs(g8
Vdetails
p252
tp253
g0
(g15
g2
Ntp254
Rp255
(dp256
g19
F0.5
sg20
I2
sg21
g0
(g22
g23
(dp257
NI1
sI01
I1
stp258
Rp259
(dp260
g20
I2
sg28
Nsg29
Nsg30
Nsbsg31
I2
sg32
F3.0
sbs(g9
Vhol
p261
tp262
g0
(g15
g2
Ntp263
Rp264
(dp265
g19
F0.5
sg20
I2
sg21
g0
(g22
g23
(dp266
NI2
stp267
Rp268
(dp269
g20
I2
sg28
Nsg29
Nsg30
Nsbsg31
I2
sg32
F3.0
sbs(g9
g209
tp270
g0
(g15
g2
Ntp271
Rp272
(dp273
g19
F0.5
sg20
I2
sg21
g0
(g22
g23
(dp274
NI2
stp275
Rp276
(dp277
g20
I2
sg28
Nsg29
Nsg30
Nsbsg31
I2
sg32
F3.0
sbs(g8
g183
tp278
g0
(g15
g2
Ntp279
Rp280
(dp281
g19
F0.5
sg20
I2
sg21
g0
(g22
g23
(dp282
NI1
sI01
I1
stp283
Rp284
(dp285
g20
I2
sg28
Nsg29
Nsg30
Nsbsg31
I2
sg32
F3.0
sbs(g10
Vlive
p286
tp287
g0
(g15
g2
Ntp288
Rp289
(dp290
g19
F0.5
sg20
I1
sg21
g0
(g22
g23
(dp291
I01
I1
stp292
Rp293
(dp294
g20
I1
sg28
Nsg29
Nsg30
Nsbsg31
I2
sg32
F2.0
sbs(g9
g42
tp295
g0
(g15
g2
Ntp296
Rp297
(dp298
g19
F0.5
sg20
I2
sg21
g0
(g22
g23
(dp299
NI2
stp300
Rp301
(dp302
g20
I2
sg28
Nsg29
Nsg30
Nsbsg31
I2
sg32
F3.0
sbs(g10
g33
tp303
g0
(g15
g2
Ntp304
Rp305
(dp306
g19
F0.5
sg20
I1
sg21
g0
(g22
g23
(dp307
NI1
stp308
Rp309
(dp310
g20
I1
sg28
Nsg29
Nsg30
Nsbsg31
I2
sg32
F2.0
sbs(g9
Vsolo
p311
tp312
g0
(g15
g2
Ntp313
Rp314
(dp315
g19
F0.5
sg20
I2
sg21
g0
(g22
g23
(dp316
NI2
stp317
Rp318
(dp319
g20
I2
sg28
Nsg29
Nsg30
Nsbsg31
I2
sg32
F3.0
sbs(g8
Vhmvedsheeran
p320
tp321
g0
(g15
g2
Ntp322
Rp323
(dp324
g19
F0.5
sg20
I2
sg21
g0
(g22
g23
(dp325
NI2
stp326
Rp327
(dp328
g20
I2
sg28
Nsg29
Nsg30
Nsbsg31
I2
sg32
F3.0
sbs(g9
g252
tp329
g0
(g15
g2
Ntp330
Rp331
(dp332
g19
F0.5
sg20
I2
sg21
g0
(g22
g23
(dp333
NI2
stp334
Rp335
(dp336
g20
I2
sg28
Nsg29
Nsg30
Nsbsg31
I2
sg32
F3.0
sbs(g10
g311
tp337
g0
(g15
g2
Ntp338
Rp339
(dp340
g19
F0.5
sg20
I1
sg21
g0
(g22
g23
(dp341
NI1
stp342
Rp343
(dp344
g20
I1
sg28
Nsg29
Nsg30
Nsbsg31
I2
sg32
F2.0
sbs(g9
g13
tp345
g0
(g15
g2
Ntp346
Rp347
(dp348
g19
F0.5
sg20
I2
sg21
g0
(g22
g23
(dp349
NI2
stp350
Rp351
(dp352
g20
I2
sg28
Nsg29
Nsg30
Nsbsg31
I2
sg32
F3.0
sbs(g9
Vusing
p353
tp354
g0
(g15
g2
Ntp355
Rp356
(dp357
g19
F0.5
sg20
I2
sg21
g0
(g22
g23
(dp358
NI2
stp359
Rp360
(dp361
g20
I2
sg28
Nsg29
Nsg30
Nsbsg31
I2
sg32
F3.0
sbs(g9
g286
tp362
g0
(g15
g2
Ntp363
Rp364
(dp365
g19
F0.5
sg20
I2
sg21
g0
(g22
g23
(dp366
NI2
stp367
Rp368
(dp369
g20
I2
sg28
Nsg29
Nsg30
Nsbsg31
I2
sg32
F3.0
sbs(g8
Vmichael
p370
tp371
g0
(g15
g2
Ntp372
Rp373
(dp374
g19
F0.5
sg20
I2
sg21
g0
(g22
g23
(dp375
NI2
stp376
Rp377
(dp378
g20
I2
sg28
Nsg29
Nsg30
Nsbsg31
I2
sg32
F3.0
sbs(g8
Vstores
p379
tp380
g0
(g15
g2
Ntp381
Rp382
(dp383
g19
F0.5
sg20
I2
sg21
g0
(g22
g23
(dp384
NI1
sI01
I1
stp385
Rp386
(dp387
g20
I2
sg28
Nsg29
Nsg30
Nsbsg31
I2
sg32
F3.0
sbs(g9
g158
tp388
g0
(g15
g2
Ntp389
Rp390
(dp391
g19
F0.5
sg20
I2
sg21
g0
(g22
g23
(dp392
NI2
stp393
Rp394
(dp395
g20
I2
sg28
Nsg29
Nsg30
Nsbsg31
I2
sg32
F3.0
sbs(g8
Vstars
p396
tp397
g0
(g15
g2
Ntp398
Rp399
(dp400
g19
F0.5
sg20
I2
sg21
g0
(g22
g23
(dp401
NI2
stp402
Rp403
(dp404
g20
I2
sg28
Nsg29
Nsg30
Nsbsg31
I2
sg32
F3.0
sbs(g8
g60
tp405
g0
(g15
g2
Ntp406
Rp407
(dp408
g19
F0.5
sg20
I2
sg21
g0
(g22
g23
(dp409
NI2
stp410
Rp411
(dp412
g20
I2
sg28
Nsg29
Nsg30
Nsbsg31
I2
sg32
F3.0
sbs(g9
Vsigning
p413
tp414
g0
(g15
g2
Ntp415
Rp416
(dp417
g19
F0.5
sg20
I2
sg21
g0
(g22
g23
(dp418
NI2
stp419
Rp420
(dp421
g20
I2
sg28
Nsg29
Nsg30
Nsbsg31
I2
sg32
F3.0
sbs(g10
g353
tp422
g0
(g15
g2
Ntp423
Rp424
(dp425
g19
F0.5
sg20
I1
sg21
g0
(g22
g23
(dp426
I01
I1
stp427
Rp428
(dp429
g20
I1
sg28
Nsg29
Nsg30
Nsbsg31
I2
sg32
F2.0
sbs(g10
g320
tp430
g0
(g15
g2
Ntp431
Rp432
(dp433
g19
F0.5
sg20
I1
sg21
g0
(g22
g23
(dp434
I01
I1
stp435
Rp436
(dp437
g20
I1
sg28
Nsg29
Nsg30
Nsbsg31
I2
sg32
F2.0
sbs(g9
g87
tp438
g0
(g15
g2
Ntp439
Rp440
(dp441
g19
F0.5
sg20
I2
sg21
g0
(g22
g23
(dp442
NI1
sI01
I1
stp443
Rp444
(dp445
g20
I2
sg28
Nsg29
Nsg30
Nsbsg31
I2
sg32
F3.0
sbs(g8
g131
tp446
g0
(g15
g2
Ntp447
Rp448
(dp449
g19
F0.5
sg20
I2
sg21
g0
(g22
g23
(dp450
NI1
sI01
I1
stp451
Rp452
(dp453
g20
I2
sg28
Nsg29
Nsg30
Nsbsg31
I2
sg32
F3.0
sbs(g10
g370
tp454
g0
(g15
g2
Ntp455
Rp456
(dp457
g19
F0.5
sg20
I1
sg21
g0
(g22
g23
(dp458
NI1
stp459
Rp460
(dp461
g20
I1
sg28
Nsg29
Nsg30
Nsbsg31
I2
sg32
F2.0
sbs(g9
g69
tp462
g0
(g15
g2
Ntp463
Rp464
(dp465
g19
F0.5
sg20
I2
sg21
g0
(g22
g23
(dp466
NI2
stp467
Rp468
(dp469
g20
I2
sg28
Nsg29
Nsg30
Nsbsg31
I2
sg32
F3.0
sbs(g8
g158
tp470
g0
(g15
g2
Ntp471
Rp472
(dp473
g19
F0.5
sg20
I2
sg21
g0
(g22
g23
(dp474
NI1
sI01
I1
stp475
Rp476
(dp477
g20
I2
sg28
Nsg29
Nsg30
Nsbsg31
I2
sg32
F3.0
sbs(g8
Vwashed
p478
tp479
g0
(g15
g2
Ntp480
Rp481
(dp482
g19
F0.5
sg20
I2
sg21
g0
(g22
g23
(dp483
NI2
stp484
Rp485
(dp486
g20
I2
sg28
Nsg29
Nsg30
Nsbsg31
I2
sg32
F3.0
sbs(g8
Vfamily
p487
tp488
g0
(g15
g2
Ntp489
Rp490
(dp491
g19
F0.5
sg20
I2
sg21
g0
(g22
g23
(dp492
NI1
sI01
I1
stp493
Rp494
(dp495
g20
I2
sg28
Nsg29
Nsg30
Nsbsg31
I2
sg32
F3.0
sbs(g8
g149
tp496
g0
(g15
g2
Ntp497
Rp498
(dp499
g19
F0.5
sg20
I2
sg21
g0
(g22
g23
(dp500
NI2
stp501
Rp502
(dp503
g20
I2
sg28
Nsg29
Nsg30
Nsbsg31
I2
sg32
F3.0
sbs(g9
Vbirdman
p504
tp505
g0
(g15
g2
Ntp506
Rp507
(dp508
g19
F0.5
sg20
I2
sg21
g0
(g22
g23
(dp509
NI1
sI01
I1
stp510
Rp511
(dp512
g20
I2
sg28
Nsg29
Nsg30
Nsbsg31
I2
sg32
F3.0
sbs(g8
g234
tp513
g0
(g15
g2
Ntp514
Rp515
(dp516
g19
F0.5
sg20
I2
sg21
g0
(g22
g23
(dp517
NI1
sI01
I1
stp518
Rp519
(dp520
g20
I2
sg28
Nsg29
Nsg30
Nsbsg31
I2
sg32
F3.0
sbs(g10
g209
tp521
g0
(g15
g2
Ntp522
Rp523
(dp524
g19
F0.5
sg20
I1
sg21
g0
(g22
g23
(dp525
NI1
stp526
Rp527
(dp528
g20
I1
sg28
Nsg29
Nsg30
Nsbsg31
I2
sg32
F2.0
sbs(g8
Vireland
p529
tp530
g0
(g15
g2
Ntp531
Rp532
(dp533
g19
F0.5
sg20
I2
sg21
g0
(g22
g23
(dp534
NI2
stp535
Rp536
(dp537
g20
I2
sg28
Nsg29
Nsg30
Nsbsg31
I2
sg32
F3.0
sbs(g10
g504
tp538
g0
(g15
g2
Ntp539
Rp540
(dp541
g19
F0.5
sg20
I1
sg21
g0
(g22
g23
(dp542
NI1
stp543
Rp544
(dp545
g20
I1
sg28
Nsg29
Nsg30
Nsbsg31
I2
sg32
F2.0
sbs(g10
Vperforming
p546
tp547
g0
(g15
g2
Ntp548
Rp549
(dp550
g19
F0.5
sg20
I1
sg21
g0
(g22
g23
(dp551
I01
I1
stp552
Rp553
(dp554
g20
I1
sg28
Nsg29
Nsg30
Nsbsg31
I2
sg32
F2.0
sbs(g9
g104
tp555
g0
(g15
g2
Ntp556
Rp557
(dp558
g19
F0.5
sg20
I2
sg21
g0
(g22
g23
(dp559
NI2
stp560
Rp561
(dp562
g20
I2
sg28
Nsg29
Nsg30
Nsbsg31
I2
sg32
F3.0
sbs(g8
g353
tp563
g0
(g15
g2
Ntp564
Rp565
(dp566
g19
F0.5
sg20
I2
sg21
g0
(g22
g23
(dp567
NI2
stp568
Rp569
(dp570
g20
I2
sg28
Nsg29
Nsg30
Nsbsg31
I2
sg32
F3.0
sbs(g8
Vlast
p571
tp572
g0
(g15
g2
Ntp573
Rp574
(dp575
g19
F0.5
sg20
I2
sg21
g0
(g22
g23
(dp576
NI2
stp577
Rp578
(dp579
g20
I2
sg28
Nsg29
Nsg30
Nsbsg31
I2
sg32
F3.0
sbs(g9
g478
tp580
g0
(g15
g2
Ntp581
Rp582
(dp583
g19
F0.5
sg20
I2
sg21
g0
(g22
g23
(dp584
NI1
sI01
I1
stp585
Rp586
(dp587
g20
I2
sg28
Nsg29
Nsg30
Nsbsg31
I2
sg32
F3.0
sbs(g10
g252
tp588
g0
(g15
g2
Ntp589
Rp590
(dp591
g19
F0.5
sg20
I1
sg21
g0
(g22
g23
(dp592
NI1
stp593
Rp594
(dp595
g20
I1
sg28
Nsg29
Nsg30
Nsbsg31
I2
sg32
F2.0
sbs(g10
g113
tp596
g0
(g15
g2
Ntp597
Rp598
(dp599
g19
F0.5
sg20
I1
sg21
g0
(g22
g23
(dp600
NI1
stp601
Rp602
(dp603
g20
I1
sg28
Nsg29
Nsg30
Nsbsg31
I2
sg32
F2.0
sbs(g8
Vwell
p604
tp605
g0
(g15
g2
Ntp606
Rp607
(dp608
g19
F0.5
sg20
I2
sg21
g0
(g22
g23
(dp609
NI1
sI01
I1
stp610
Rp611
(dp612
g20
I2
sg28
Nsg29
Nsg30
Nsbsg31
I2
sg32
F3.0
sbs(g10
g140
tp613
g0
(g15
g2
Ntp614
Rp615
(dp616
g19
F0.5
sg20
I1
sg21
g0
(g22
g23
(dp617
NI1
stp618
Rp619
(dp620
g20
I1
sg28
Nsg29
Nsg30
Nsbsg31
I2
sg32
F2.0
sbs(g8
g286
tp621
g0
(g15
g2
Ntp622
Rp623
(dp624
g19
F0.5
sg20
I2
sg21
g0
(g22
g23
(dp625
NI2
stp626
Rp627
(dp628
g20
I2
sg28
Nsg29
Nsg30
Nsbsg31
I2
sg32
F3.0
sbs(g10
g529
tp629
g0
(g15
g2
Ntp630
Rp631
(dp632
g19
F0.5
sg20
I1
sg21
g0
(g22
g23
(dp633
I01
I1
stp634
Rp635
(dp636
g20
I1
sg28
Nsg29
Nsg30
Nsbsg31
I2
sg32
F2.0
sbs(g9
g51
tp637
g0
(g15
g2
Ntp638
Rp639
(dp640
g19
F0.5
sg20
I2
sg21
g0
(g22
g23
(dp641
NI2
stp642
Rp643
(dp644
g20
I2
sg28
Nsg29
Nsg30
Nsbsg31
I2
sg32
F3.0
sbs(g9
g571
tp645
g0
(g15
g2
Ntp646
Rp647
(dp648
g19
F0.5
sg20
I2
sg21
g0
(g22
g23
(dp649
NI1
sI01
I1
stp650
Rp651
(dp652
g20
I2
sg28
Nsg29
Nsg30
Nsbsg31
I2
sg32
F3.0
sbs(g10
g571
tp653
g0
(g15
g2
Ntp654
Rp655
(dp656
g19
F0.5
sg20
I1
sg21
g0
(g22
g23
(dp657
NI1
stp658
Rp659
(dp660
g20
I1
sg28
Nsg29
Nsg30
Nsbsg31
I2
sg32
F2.0
sbs(g8
g311
tp661
g0
(g15
g2
Ntp662
Rp663
(dp664
g19
F0.5
sg20
I2
sg21
g0
(g22
g23
(dp665
NI1
sI01
I1
stp666
Rp667
(dp668
g20
I2
sg28
Nsg29
Nsg30
Nsbsg31
I2
sg32
F3.0
sbs(g9
g113
tp669
g0
(g15
g2
Ntp670
Rp671
(dp672
g19
F0.5
sg20
I2
sg21
g0
(g22
g23
(dp673
NI1
sI01
I1
stp674
Rp675
(dp676
g20
I2
sg28
Nsg29
Nsg30
Nsbsg31
I2
sg32
F3.0
sbs(g9
g122
tp677
g0
(g15
g2
Ntp678
Rp679
(dp680
g19
F0.5
sg20
I2
sg21
g0
(g22
g23
(dp681
NI2
stp682
Rp683
(dp684
g20
I2
sg28
Nsg29
Nsg30
Nsbsg31
I2
sg32
F3.0
sbs(g8
g42
tp685
g0
(g15
g2
Ntp686
Rp687
(dp688
g19
F0.5
sg20
I2
sg21
g0
(g22
g23
(dp689
NI1
sI01
I1
stp690
Rp691
(dp692
g20
I2
sg28
Nsg29
Nsg30
Nsbsg31
I2
sg32
F3.0
sbs(g9
g234
tp693
g0
(g15
g2
Ntp694
Rp695
(dp696
g19
F0.5
sg20
I2
sg21
g0
(g22
g23
(dp697
NI2
stp698
Rp699
(dp700
g20
I2
sg28
Nsg29
Nsg30
Nsbsg31
I2
sg32
F3.0
sbs(g9
g604
tp701
g0
(g15
g2
Ntp702
Rp703
(dp704
g19
F0.5
sg20
I2
sg21
g0
(g22
g23
(dp705
NI2
stp706
Rp707
(dp708
g20
I2
sg28
Nsg29
Nsg30
Nsbsg31
I2
sg32
F3.0
sbs(g9
g396
tp709
g0
(g15
g2
Ntp710
Rp711
(dp712
g19
F0.5
sg20
I2
sg21
g0
(g22
g23
(dp713
NI1
sI01
I1
stp714
Rp715
(dp716
g20
I2
sg28
Nsg29
Nsg30
Nsbsg31
I2
sg32
F3.0
sbs(g10
g604
tp717
g0
(g15
g2
Ntp718
Rp719
(dp720
g19
F0.5
sg20
I1
sg21
g0
(g22
g23
(dp721
NI1
stp722
Rp723
(dp724
g20
I1
sg28
Nsg29
Nsg30
Nsbsg31
I2
sg32
F2.0
sbs(g10
Vgoing
p725
tp726
g0
(g15
g2
Ntp727
Rp728
(dp729
g19
F0.5
sg20
I1
sg21
g0
(g22
g23
(dp730
NI1
stp731
Rp732
(dp733
g20
I1
sg28
Nsg29
Nsg30
Nsbsg31
I2
sg32
F2.0
sbs(g10
g261
tp734
g0
(g15
g2
Ntp735
Rp736
(dp737
g19
F0.5
sg20
I1
sg21
g0
(g22
g23
(dp738
NI1
stp739
Rp740
(dp741
g20
I1
sg28
Nsg29
Nsg30
Nsbsg31
I2
sg32
F2.0
sbs(g9
g725
tp742
g0
(g15
g2
Ntp743
Rp744
(dp745
g19
F0.5
sg20
I2
sg21
g0
(g22
g23
(dp746
NI2
stp747
Rp748
(dp749
g20
I2
sg28
Nsg29
Nsg30
Nsbsg31
I2
sg32
F3.0
sbs(g10
g379
tp750
g0
(g15
g2
Ntp751
Rp752
(dp753
g19
F0.5
sg20
I1
sg21
g0
(g22
g23
(dp754
NI1
stp755
Rp756
(dp757
g20
I1
sg28
Nsg29
Nsg30
Nsbsg31
I2
sg32
F2.0
sbs(g8
g104
tp758
g0
(g15
g2
Ntp759
Rp760
(dp761
g19
F0.5
sg20
I2
sg21
g0
(g22
g23
(dp762
NI2
stp763
Rp764
(dp765
g20
I2
sg28
Nsg29
Nsg30
Nsbsg31
I2
sg32
F3.0
sbs(g10
g396
tp766
g0
(g15
g2
Ntp767
Rp768
(dp769
g19
F0.5
sg20
I1
sg21
g0
(g22
g23
(dp770
NI1
stp771
Rp772
(dp773
g20
I1
sg28
Nsg29
Nsg30
Nsbsg31
I2
sg32
F2.0
sbs(g9
g529
tp774
g0
(g15
g2
Ntp775
Rp776
(dp777
g19
F0.5
sg20
I2
sg21
g0
(g22
g23
(dp778
NI2
stp779
Rp780
(dp781
g20
I2
sg28
Nsg29
Nsg30
Nsbsg31
I2
sg32
F3.0
sbs(g9
g78
tp782
g0
(g15
g2
Ntp783
Rp784
(dp785
g19
F0.5
sg20
I2
sg21
g0
(g22
g23
(dp786
NI2
stp787
Rp788
(dp789
g20
I2
sg28
Nsg29
Nsg30
Nsbsg31
I2
sg32
F3.0
sbs(g9
g546
tp790
g0
(g15
g2
Ntp791
Rp792
(dp793
g19
F0.5
sg20
I2
sg21
g0
(g22
g23
(dp794
NI2
stp795
Rp796
(dp797
g20
I2
sg28
Nsg29
Nsg30
Nsbsg31
I2
sg32
F3.0
sbs(g8
g200
tp798
g0
(g15
g2
Ntp799
Rp800
(dp801
g19
F0.5
sg20
I2
sg21
g0
(g22
g23
(dp802
NI2
stp803
Rp804
(dp805
g20
I2
sg28
Nsg29
Nsg30
Nsbsg31
I2
sg32
F3.0
sbs(g9
g60
tp806
g0
(g15
g2
Ntp807
Rp808
(dp809
g19
F0.5
sg20
I2
sg21
g0
(g22
g23
(dp810
NI1
sI01
I1
stp811
Rp812
(dp813
g20
I2
sg28
Nsg29
Nsg30
Nsbsg31
I2
sg32
F3.0
sbs(g8
g725
tp814
g0
(g15
g2
Ntp815
Rp816
(dp817
g19
F0.5
sg20
I2
sg21
g0
(g22
g23
(dp818
NI1
sI01
I1
stp819
Rp820
(dp821
g20
I2
sg28
Nsg29
Nsg30
Nsbsg31
I2
sg32
F3.0
sbs(g8
g261
tp822
g0
(g15
g2
Ntp823
Rp824
(dp825
g19
F0.5
sg20
I2
sg21
g0
(g22
g23
(dp826
NI1
sI01
I1
stp827
Rp828
(dp829
g20
I2
sg28
Nsg29
Nsg30
Nsbsg31
I2
sg32
F3.0
sbs(g10
g478
tp830
g0
(g15
g2
Ntp831
Rp832
(dp833
g19
F0.5
sg20
I1
sg21
g0
(g22
g23
(dp834
NI1
stp835
Rp836
(dp837
g20
I1
sg28
Nsg29
Nsg30
Nsbsg31
I2
sg32
F2.0
sbs(g10
g487
tp838
g0
(g15
g2
Ntp839
Rp840
(dp841
g19
F0.5
sg20
I1
sg21
g0
(g22
g23
(dp842
NI1
stp843
Rp844
(dp845
g20
I1
sg28
Nsg29
Nsg30
Nsbsg31
I2
sg32
F2.0
sbs(g9
g487
tp846
g0
(g15
g2
Ntp847
Rp848
(dp849
g19
F0.5
sg20
I2
sg21
g0
(g22
g23
(dp850
NI2
stp851
Rp852
(dp853
g20
I2
sg28
Nsg29
Nsg30
Nsbsg31
I2
sg32
F3.0
sbs(g9
g243
tp854
g0
(g15
g2
Ntp855
Rp856
(dp857
g19
F0.5
sg20
I2
sg21
g0
(g22
g23
(dp858
NI2
stp859
Rp860
(dp861
g20
I2
sg28
Nsg29
Nsg30
Nsbsg31
I2
sg32
F3.0
sbs(g9
g131
tp862
g0
(g15
g2
Ntp863
Rp864
(dp865
g19
F0.5
sg20
I2
sg21
g0
(g22
g23
(dp866
NI2
stp867
Rp868
(dp869
g20
I2
sg28
Nsg29
Nsg30
Nsbsg31
I2
sg32
F3.0
sbs(g10
g413
tp870
g0
(g15
g2
Ntp871
Rp872
(dp873
g19
F0.5
sg20
I1
sg21
g0
(g22
g23
(dp874
I01
I1
stp875
Rp876
(dp877
g20
I1
sg28
Nsg29
Nsg30
Nsbsg31
I2
sg32
F2.0
sbs(g10
g243
tp878
g0
(g15
g2
Ntp879
Rp880
(dp881
g19
F0.5
sg20
I1
sg21
g0
(g22
g23
(dp882
NI1
stp883
Rp884
(dp885
g20
I1
sg28
Nsg29
Nsg30
Nsbsg31
I2
sg32
F2.0
sbs(g10
g149
tp886
g0
(g15
g2
Ntp887
Rp888
(dp889
g19
F0.5
sg20
I1
sg21
g0
(g22
g23
(dp890
NI1
stp891
Rp892
(dp893
g20
I1
sg28
Nsg29
Nsg30
Nsbsg31
I2
sg32
F2.0
sbs(g8
g504
tp894
g0
(g15
g2
Ntp895
Rp896
(dp897
g19
F0.5
sg20
I2
sg21
g0
(g22
g23
(dp898
NI2
stp899
Rp900
(dp901
g20
I2
sg28
Nsg29
Nsg30
Nsbsg31
I2
sg32
F3.0
sbs(g8
Vperforming
p902
tp903
g0
(g15
g2
Ntp904
Rp905
(dp906
g19
F0.5
sg20
I2
sg21
g0
(g22
g23
(dp907
NI1
sI01
I1
stp908
Rp909
(dp910
g20
I2
sg28
Nsg29
Nsg30
Nsbsg31
I2
sg32
F3.0
sbs(g9
g320
tp911
g0
(g15
g2
Ntp912
Rp913
(dp914
g19
F0.5
sg20
I2
sg21
g0
(g22
g23
(dp915
NI2
stp916
Rp917
(dp918
g20
I2
sg28
Nsg29
Nsg30
Nsbsg31
I2
sg32
F3.0
sbs(g10
g200
tp919
g0
(g15
g2
Ntp920
Rp921
(dp922
g19
F0.5
sg20
I1
sg21
g0
(g22
g23
(dp923
NI1
stp924
Rp925
(dp926
g20
I1
sg28
Nsg29
Nsg30
Nsbsg31
I2
sg32
F2.0
sbs(g8
g33
tp927
g0
(g15
g2
Ntp928
Rp929
(dp930
g19
F0.5
sg20
I2
sg21
g0
(g22
g23
(dp931
NI2
stp932
Rp933
(dp934
g20
I2
sg28
Nsg29
Nsg30
Nsbsg31
I2
sg32
F3.0
sbs(g9
g379
tp935
g0
(g15
g2
Ntp936
Rp937
(dp938
g19
F0.5
sg20
I2
sg21
g0
(g22
g23
(dp939
NI2
stp940
Rp941
(dp942
g20
I2
sg28
Nsg29
Nsg30
Nsbsg31
I2
sg32
F3.0
sbs(g9
g370
tp943
g0
(g15
g2
Ntp944
Rp945
(dp946
g19
F0.5
sg20
I2
sg21
g0
(g22
g23
(dp947
NI1
sI01
I1
stp948
Rp949
(dp950
g20
I2
sg28
Nsg29
Nsg30
Nsbsg31
I2
sg32
F3.0
sbs(g10
g69
tp951
g0
(g15
g2
Ntp952
Rp953
(dp954
g19
F0.5
sg20
I1
sg21
g0
(g22
g23
(dp955
I01
I1
stp956
Rp957
(dp958
g20
I1
sg28
Nsg29
Nsg30
Nsbsg31
I2
sg32
F2.0
sbs(g8
Vsigning
p959
tp960
g0
(g15
g2
Ntp961
Rp962
(dp963
g19
F0.5
sg20
I2
sg21
g0
(g22
g23
(dp964
NI1
sI01
I1
stp965
Rp966
(dp967
g20
I2
sg28
Nsg29
Nsg30
Nsbsg31
I2
sg32
F3.0
sbs(g8
g140
tp968
g0
(g15
g2
Ntp969
Rp970
(dp971
g19
F0.5
sg20
I2
sg21
g0
(g22
g23
(dp972
NI2
stp973
Rp974
(dp975
g20
I2
sg28
Nsg29
Nsg30
Nsbsg31
I2
sg32
F3.0
sbssS'_label_probdist'
p976
g0
(g15
g2
Ntp977
Rp978
(dp979
g19
F0.5
sg20
I5
sg21
g0
(g22
g23
(dp980
g9
I2
sg10
I1
sg8
I2
stp981
Rp982
(dp983
g20
I5
sg28
Nsg29
(lp984
(g8
I2
tp985
a(g9
I2
tp986
a(g10
I1
tp987
asg30
Nsbsg31
I3
sg32
F6.5
sbsb.