ccopy_reg
_reconstructor
p0
(cnltk.classify.naivebayes
NaiveBayesClassifier
p1
c__builtin__
object
p2
Ntp3
Rp4
(dp5
S'_labels'
p6
(lp7
VPos
p8
aV Neut
p9
asS'_feature_probdist'
p10
(dp11
(g9
Vkeaton
p12
tp13
g0
(cnltk.probability
ELEProbDist
p14
g2
Ntp15
Rp16
(dp17
S'_gamma'
p18
F0.5
sS'_N'
p19
I3
sS'_freqdist'
p20
g0
(cnltk.probability
FreqDist
p21
c__builtin__
dict
p22
(dp23
NI3
stp24
Rp25
(dp26
g19
I3
sS'_max_cache'
p27
NsS'_item_cache'
p28
NsS'_Nr_cache'
p29
NsbsS'_bins'
p30
I2
sS'_divisor'
p31
F4.0
sbs(g8
Vconfirmed
p32
tp33
g0
(g14
g2
Ntp34
Rp35
(dp36
g18
F0.5
sg19
I5
sg20
g0
(g21
g22
(dp37
NI5
stp38
Rp39
(dp40
g19
I5
sg27
Nsg28
Nsg29
Nsbsg30
I2
sg31
F6.0
sbs(g9
Vmusic
p41
tp42
g0
(g14
g2
Ntp43
Rp44
(dp45
g18
F0.5
sg19
I3
sg20
g0
(g21
g22
(dp46
NI3
stp47
Rp48
(dp49
g19
I3
sg27
Nsg28
Nsg29
Nsbsg30
I2
sg31
F4.0
sbs(g9
Vsuperhero
p50
tp51
g0
(g14
g2
Ntp52
Rp53
(dp54
g18
F0.5
sg19
I3
sg20
g0
(g21
g22
(dp55
NI3
stp56
Rp57
(dp58
g19
I3
sg27
Nsg28
Nsg29
Nsbsg30
I2
sg31
F4.0
sbs(g8
Vhmvedsheeran
p59
tp60
g0
(g14
g2
Ntp61
Rp62
(dp63
g18
F0.5
sg19
I5
sg20
g0
(g21
g22
(dp64
NI4
sI01
I1
stp65
Rp66
(dp67
g19
I5
sg27
Nsg28
Nsg29
Nsbsg30
I2
sg31
F6.0
sbs(g9
Vglory
p68
tp69
g0
(g14
g2
Ntp70
Rp71
(dp72
g18
F0.5
sg19
I3
sg20
g0
(g21
g22
(dp73
NI2
sI01
I1
stp74
Rp75
(dp76
g19
I3
sg27
Nsg28
Nsg29
Nsbsg30
I2
sg31
F4.0
sbs(g8
Vstars
p77
tp78
g0
(g14
g2
Ntp79
Rp80
(dp81
g18
F0.5
sg19
I5
sg20
g0
(g21
g22
(dp82
NI4
sI01
I1
stp83
Rp84
(dp85
g19
I5
sg27
Nsg28
Nsg29
Nsbsg30
I2
sg31
F6.0
sbs(g9
Vfull
p86
tp87
g0
(g14
g2
Ntp88
Rp89
(dp90
g18
F0.5
sg19
I3
sg20
g0
(g21
g22
(dp91
NI2
sI01
I1
stp92
Rp93
(dp94
g19
I3
sg27
Nsg28
Nsg29
Nsbsg30
I2
sg31
F4.0
sbs(g8
Vpriorityaccess
p95
tp96
g0
(g14
g2
Ntp97
Rp98
(dp99
g18
F0.5
sg19
I5
sg20
g0
(g21
g22
(dp100
NI4
sI01
I1
stp101
Rp102
(dp103
g19
I5
sg27
Nsg28
Nsg29
Nsbsg30
I2
sg31
F6.0
sbs(g9
Vhmv
p104
tp105
g0
(g14
g2
Ntp106
Rp107
(dp108
g18
F0.5
sg19
I3
sg20
g0
(g21
g22
(dp109
NI3
stp110
Rp111
(dp112
g19
I3
sg27
Nsg28
Nsg29
Nsbsg30
I2
sg31
F4.0
sbs(g8
Vhmvgoldenticket
p113
tp114
g0
(g14
g2
Ntp115
Rp116
(dp117
g18
F0.5
sg19
I5
sg20
g0
(g21
g22
(dp118
NI4
sI01
I1
stp119
Rp120
(dp121
g19
I5
sg27
Nsg28
Nsg29
Nsbsg30
I2
sg31
F6.0
sbs(g9
Vbirdman
p122
tp123
g0
(g14
g2
Ntp124
Rp125
(dp126
g18
F0.5
sg19
I3
sg20
g0
(g21
g22
(dp127
NI3
stp128
Rp129
(dp130
g19
I3
sg27
Nsg28
Nsg29
Nsbsg30
I2
sg31
F4.0
sbs(g9
Vwinner
p131
tp132
g0
(g14
g2
Ntp133
Rp134
(dp135
g18
F0.5
sg19
I3
sg20
g0
(g21
g22
(dp136
NI2
sI01
I1
stp137
Rp138
(dp139
g19
I3
sg27
Nsg28
Nsg29
Nsbsg30
I2
sg31
F4.0
sbs(g9
Vfans
p140
tp141
g0
(g14
g2
Ntp142
Rp143
(dp144
g18
F0.5
sg19
I3
sg20
g0
(g21
g22
(dp145
NI2
sI01
I1
stp146
Rp147
(dp148
g19
I3
sg27
Nsg28
Nsg29
Nsbsg30
I2
sg31
F4.0
sbs(g8
Vattending
p149
tp150
g0
(g14
g2
Ntp151
Rp152
(dp153
g18
F0.5
sg19
I5
sg20
g0
(g21
g22
(dp154
NI4
sI01
I1
stp155
Rp156
(dp157
g19
I5
sg27
Nsg28
Nsg29
Nsbsg30
I2
sg31
F6.0
sbs(g8
Vhot
p158
tp159
g0
(g14
g2
Ntp160
Rp161
(dp162
g18
F0.5
sg19
I5
sg20
g0
(g21
g22
(dp163
NI5
stp164
Rp165
(dp166
g19
I5
sg27
Nsg28
Nsg29
Nsbsg30
I2
sg31
F6.0
sbs(g9
Vmonth
p167
tp168
g0
(g14
g2
Ntp169
Rp170
(dp171
g18
F0.5
sg19
I3
sg20
g0
(g21
g22
(dp172
NI3
stp173
Rp174
(dp175
g19
I3
sg27
Nsg28
Nsg29
Nsbsg30
I2
sg31
F4.0
sbs(g9
Vdetails
p176
tp177
g0
(g14
g2
Ntp178
Rp179
(dp180
g18
F0.5
sg19
I3
sg20
g0
(g21
g22
(dp181
NI2
sI01
I1
stp182
Rp183
(dp184
g19
I3
sg27
Nsg28
Nsg29
Nsbsg30
I2
sg31
F4.0
sbs(g9
Vcomp
p185
tp186
g0
(g14
g2
Ntp187
Rp188
(dp189
g18
F0.5
sg19
I3
sg20
g0
(g21
g22
(dp190
NI2
sI01
I1
stp191
Rp192
(dp193
g19
I3
sg27
Nsg28
Nsg29
Nsbsg30
I2
sg31
F4.0
sbs(g8
Vireland
p194
tp195
g0
(g14
g2
Ntp196
Rp197
(dp198
g18
F0.5
sg19
I5
sg20
g0
(g21
g22
(dp199
NI4
sI01
I1
stp200
Rp201
(dp202
g19
I5
sg27
Nsg28
Nsg29
Nsbsg30
I2
sg31
F6.0
sbs(g9
Vgoing
p203
tp204
g0
(g14
g2
Ntp205
Rp206
(dp207
g18
F0.5
sg19
I3
sg20
g0
(g21
g22
(dp208
NI2
sI01
I1
stp209
Rp210
(dp211
g19
I3
sg27
Nsg28
Nsg29
Nsbsg30
I2
sg31
F4.0
sbs(g8
Vaction
p212
tp213
g0
(g14
g2
Ntp214
Rp215
(dp216
g18
F0.5
sg19
I5
sg20
g0
(g21
g22
(dp217
NI4
sI01
I1
stp218
Rp219
(dp220
g19
I5
sg27
Nsg28
Nsg29
Nsbsg30
I2
sg31
F6.0
sbs(g8
Vmorning
p221
tp222
g0
(g14
g2
Ntp223
Rp224
(dp225
g18
F0.5
sg19
I5
sg20
g0
(g21
g22
(dp226
NI5
stp227
Rp228
(dp229
g19
I5
sg27
Nsg28
Nsg29
Nsbsg30
I2
sg31
F6.0
sbs(g8
Vperform
p230
tp231
g0
(g14
g2
Ntp232
Rp233
(dp234
g18
F0.5
sg19
I5
sg20
g0
(g21
g22
(dp235
NI4
sI01
I1
stp236
Rp237
(dp238
g19
I5
sg27
Nsg28
Nsg29
Nsbsg30
I2
sg31
F6.0
sbs(g8
Vpoints
p239
tp240
g0
(g14
g2
Ntp241
Rp242
(dp243
g18
F0.5
sg19
I5
sg20
g0
(g21
g22
(dp244
NI4
sI01
I1
stp245
Rp246
(dp247
g19
I5
sg27
Nsg28
Nsg29
Nsbsg30
I2
sg31
F6.0
sbs(g8
g176
tp248
g0
(g14
g2
Ntp249
Rp250
(dp251
g18
F0.5
sg19
I5
sg20
g0
(g21
g22
(dp252
NI5
stp253
Rp254
(dp255
g19
I5
sg27
Nsg28
Nsg29
Nsbsg30
I2
sg31
F6.0
sbs(g9
g95
tp256
g0
(g14
g2
Ntp257
Rp258
(dp259
g18
F0.5
sg19
I3
sg20
g0
(g21
g22
(dp260
NI3
stp261
Rp262
(dp263
g19
I3
sg27
Nsg28
Nsg29
Nsbsg30
I2
sg31
F4.0
sbs(g9
Vnicholas
p264
tp265
g0
(g14
g2
Ntp266
Rp267
(dp268
g18
F0.5
sg19
I3
sg20
g0
(g21
g22
(dp269
NI3
stp270
Rp271
(dp272
g19
I3
sg27
Nsg28
Nsg29
Nsbsg30
I2
sg31
F4.0
sbs(g9
g113
tp273
g0
(g14
g2
Ntp274
Rp275
(dp276
g18
F0.5
sg19
I3
sg20
g0
(g21
g22
(dp277
NI3
stp278
Rp279
(dp280
g19
I3
sg27
Nsg28
Nsg29
Nsbsg30
I2
sg31
F4.0
sbs(g8
Vperforming
p281
tp282
g0
(g14
g2
Ntp283
Rp284
(dp285
g18
F0.5
sg19
I5
sg20
g0
(g21
g22
(dp286
NI4
sI01
I1
stp287
Rp288
(dp289
g19
I5
sg27
Nsg28
Nsg29
Nsbsg30
I2
sg31
F6.0
sbs(g8
Vcase
p290
tp291
g0
(g14
g2
Ntp292
Rp293
(dp294
g18
F0.5
sg19
I5
sg20
g0
(g21
g22
(dp295
NI5
stp296
Rp297
(dp298
g19
I5
sg27
Nsg28
Nsg29
Nsbsg30
I2
sg31
F6.0
sbs(g8
Vuse
p299
tp300
g0
(g14
g2
Ntp301
Rp302
(dp303
g18
F0.5
sg19
I5
sg20
g0
(g21
g22
(dp304
NI4
sI01
I1
stp305
Rp306
(dp307
g19
I5
sg27
Nsg28
Nsg29
Nsbsg30
I2
sg31
F6.0
sbs(g9
Vscorchio
p308
tp309
g0
(g14
g2
Ntp310
Rp311
(dp312
g18
F0.5
sg19
I3
sg20
g0
(g21
g22
(dp313
NI2
sI01
I1
stp314
Rp315
(dp316
g19
I3
sg27
Nsg28
Nsg29
Nsbsg30
I2
sg31
F4.0
sbs(g9
Voasis
p317
tp318
g0
(g14
g2
Ntp319
Rp320
(dp321
g18
F0.5
sg19
I3
sg20
g0
(g21
g22
(dp322
NI2
sI01
I1
stp323
Rp324
(dp325
g19
I3
sg27
Nsg28
Nsg29
Nsbsg30
I2
sg31
F4.0
sbs(g9
Vforecast
p326
tp327
g0
(g14
g2
Ntp328
Rp329
(dp330
g18
F0.5
sg19
I3
sg20
g0
(g21
g22
(dp331
NI2
sI01
I1
stp332
Rp333
(dp334
g19
I3
sg27
Nsg28
Nsg29
Nsbsg30
I2
sg31
F4.0
sbs(g8
Vfind
p335
tp336
g0
(g14
g2
Ntp337
Rp338
(dp339
g18
F0.5
sg19
I5
sg20
g0
(g21
g22
(dp340
NI4
sI01
I1
stp341
Rp342
(dp343
g19
I5
sg27
Nsg28
Nsg29
Nsbsg30
I2
sg31
F6.0
sbs(g8
Vbatman
p344
tp345
g0
(g14
g2
Ntp346
Rp347
(dp348
g18
F0.5
sg19
I5
sg20
g0
(g21
g22
(dp349
NI4
sI01
I1
stp350
Rp351
(dp352
g19
I5
sg27
Nsg28
Nsg29
Nsbsg30
I2
sg31
F6.0
sbs(g8
Vwell
p353
tp354
g0
(g14
g2
Ntp355
Rp356
(dp357
g18
F0.5
sg19
I5
sg20
g0
(g21
g22
(dp358
NI5
stp359
Rp360
(dp361
g19
I5
sg27
Nsg28
Nsg29
Nsbsg30
I2
sg31
F6.0
sbs(g8
Vsigning
p362
tp363
g0
(g14
g2
Ntp364
Rp365
(dp366
g18
F0.5
sg19
I5
sg20
g0
(g21
g22
(dp367
NI4
sI01
I1
stp368
Rp369
(dp370
g19
I5
sg27
Nsg28
Nsg29
Nsbsg30
I2
sg31
F6.0
sbs(g9
Vlive
p371
tp372
g0
(g14
g2
Ntp373
Rp374
(dp375
g18
F0.5
sg19
I3
sg20
g0
(g21
g22
(dp376
NI3
stp377
Rp378
(dp379
g19
I3
sg27
Nsg28
Nsg29
Nsbsg30
I2
sg31
F4.0
sbs(g8
Vhol
p380
tp381
g0
(g14
g2
Ntp382
Rp383
(dp384
g18
F0.5
sg19
I5
sg20
g0
(g21
g22
(dp385
NI5
stp386
Rp387
(dp388
g19
I5
sg27
Nsg28
Nsg29
Nsbsg30
I2
sg31
F6.0
sbs(g9
Vreissue
p389
tp390
g0
(g14
g2
Ntp391
Rp392
(dp393
g18
F0.5
sg19
I3
sg20
g0
(g21
g22
(dp394
NI2
sI01
I1
stp395
Rp396
(dp397
g19
I3
sg27
Nsg28
Nsg29
Nsbsg30
I2
sg31
F4.0
sbs(g9
g353
tp398
g0
(g14
g2
Ntp399
Rp400
(dp401
g18
F0.5
sg19
I3
sg20
g0
(g21
g22
(dp402
NI2
sI01
I1
stp403
Rp404
(dp405
g19
I3
sg27
Nsg28
Nsg29
Nsbsg30
I2
sg31
F4.0
sbs(g8
g371
tp406
g0
(g14
g2
Ntp407
Rp408
(dp409
g18
F0.5
sg19
I5
sg20
g0
(g21
g22
(dp410
NI4
sI01
I1
stp411
Rp412
(dp413
g19
I5
sg27
Nsg28
Nsg29
Nsbsg30
I2
sg31
F6.0
sbs(g8
g389
tp414
g0
(g14
g2
Ntp415
Rp416
(dp417
g18
F0.5
sg19
I5
sg20
g0
(g21
g22
(dp418
NI5
stp419
Rp420
(dp421
g19
I5
sg27
Nsg28
Nsg29
Nsbsg30
I2
sg31
F6.0
sbs(g9
g344
tp422
g0
(g14
g2
Ntp423
Rp424
(dp425
g18
F0.5
sg19
I3
sg20
g0
(g21
g22
(dp426
NI3
stp427
Rp428
(dp429
g19
I3
sg27
Nsg28
Nsg29
Nsbsg30
I2
sg31
F4.0
sbs(g9
Vtomo
p430
tp431
g0
(g14
g2
Ntp432
Rp433
(dp434
g18
F0.5
sg19
I3
sg20
g0
(g21
g22
(dp435
NI2
sI01
I1
stp436
Rp437
(dp438
g19
I3
sg27
Nsg28
Nsg29
Nsbsg30
I2
sg31
F4.0
sbs(g8
Vhols
p439
tp440
g0
(g14
g2
Ntp441
Rp442
(dp443
g18
F0.5
sg19
I5
sg20
g0
(g21
g22
(dp444
NI5
stp445
Rp446
(dp447
g19
I5
sg27
Nsg28
Nsg29
Nsbsg30
I2
sg31
F6.0
sbs(g8
g86
tp448
g0
(g14
g2
Ntp449
Rp450
(dp451
g18
F0.5
sg19
I5
sg20
g0
(g21
g22
(dp452
NI5
stp453
Rp454
(dp455
g19
I5
sg27
Nsg28
Nsg29
Nsbsg30
I2
sg31
F6.0
sbs(g9
Vaug9
p456
tp457
g0
(g14
g2
Ntp458
Rp459
(dp460
g18
F0.5
sg19
I3
sg20
g0
(g21
g22
(dp461
NI3
stp462
Rp463
(dp464
g19
I3
sg27
Nsg28
Nsg29
Nsbsg30
I2
sg31
F4.0
sbs(g9
Vqueue
p465
tp466
g0
(g14
g2
Ntp467
Rp468
(dp469
g18
F0.5
sg19
I3
sg20
g0
(g21
g22
(dp470
NI2
sI01
I1
stp471
Rp472
(dp473
g19
I3
sg27
Nsg28
Nsg29
Nsbsg30
I2
sg31
F4.0
sbs(g8
Vwater
p474
tp475
g0
(g14
g2
Ntp476
Rp477
(dp478
g18
F0.5
sg19
I5
sg20
g0
(g21
g22
(dp479
NI5
stp480
Rp481
(dp482
g19
I5
sg27
Nsg28
Nsg29
Nsbsg30
I2
sg31
F6.0
sbs(g8
g68
tp483
g0
(g14
g2
Ntp484
Rp485
(dp486
g18
F0.5
sg19
I5
sg20
g0
(g21
g22
(dp487
NI5
stp488
Rp489
(dp490
g19
I5
sg27
Nsg28
Nsg29
Nsbsg30
I2
sg31
F6.0
sbs(g8
Vlocated
p491
tp492
g0
(g14
g2
Ntp493
Rp494
(dp495
g18
F0.5
sg19
I5
sg20
g0
(g21
g22
(dp496
NI4
sI01
I1
stp497
Rp498
(dp499
g19
I5
sg27
Nsg28
Nsg29
Nsbsg30
I2
sg31
F6.0
sbs(g9
g290
tp500
g0
(g14
g2
Ntp501
Rp502
(dp503
g18
F0.5
sg19
I3
sg20
g0
(g21
g22
(dp504
NI2
sI01
I1
stp505
Rp506
(dp507
g19
I3
sg27
Nsg28
Nsg29
Nsbsg30
I2
sg31
F4.0
sbs(g8
Vsee
p508
tp509
g0
(g14
g2
Ntp510
Rp511
(dp512
g18
F0.5
sg19
I5
sg20
g0
(g21
g22
(dp513
NI3
sI01
I2
stp514
Rp515
(dp516
g19
I5
sg27
Nsg28
Nsg29
Nsbsg30
I2
sg31
F6.0
sbs(g8
Vfestival
p517
tp518
g0
(g14
g2
Ntp519
Rp520
(dp521
g18
F0.5
sg19
I5
sg20
g0
(g21
g22
(dp522
NI4
sI01
I1
stp523
Rp524
(dp525
g19
I5
sg27
Nsg28
Nsg29
Nsbsg30
I2
sg31
F6.0
sbs(g9
g299
tp526
g0
(g14
g2
Ntp527
Rp528
(dp529
g18
F0.5
sg19
I3
sg20
g0
(g21
g22
(dp530
NI3
stp531
Rp532
(dp533
g19
I3
sg27
Nsg28
Nsg29
Nsbsg30
I2
sg31
F4.0
sbs(g8
Vhmvlive
p534
tp535
g0
(g14
g2
Ntp536
Rp537
(dp538
g18
F0.5
sg19
I5
sg20
g0
(g21
g22
(dp539
NI3
sI01
I2
stp540
Rp541
(dp542
g19
I5
sg27
Nsg28
Nsg29
Nsbsg30
I2
sg31
F6.0
sbs(g8
g12
tp543
g0
(g14
g2
Ntp544
Rp545
(dp546
g18
F0.5
sg19
I5
sg20
g0
(g21
g22
(dp547
NI4
sI01
I1
stp548
Rp549
(dp550
g19
I5
sg27
Nsg28
Nsg29
Nsbsg30
I2
sg31
F6.0
sbs(g8
g41
tp551
g0
(g14
g2
Ntp552
Rp553
(dp554
g18
F0.5
sg19
I5
sg20
g0
(g21
g22
(dp555
NI4
sI01
I1
stp556
Rp557
(dp558
g19
I5
sg27
Nsg28
Nsg29
Nsbsg30
I2
sg31
F6.0
sbs(g8
Vwashed
p559
tp560
g0
(g14
g2
Ntp561
Rp562
(dp563
g18
F0.5
sg19
I5
sg20
g0
(g21
g22
(dp564
NI4
sI01
I1
stp565
Rp566
(dp567
g19
I5
sg27
Nsg28
Nsg29
Nsbsg30
I2
sg31
F6.0
sbs(g8
g430
tp568
g0
(g14
g2
Ntp569
Rp570
(dp571
g18
F0.5
sg19
I5
sg20
g0
(g21
g22
(dp572
NI5
stp573
Rp574
(dp575
g19
I5
sg27
Nsg28
Nsg29
Nsbsg30
I2
sg31
F6.0
sbs(g8
Vtenerife
p576
tp577
g0
(g14
g2
Ntp578
Rp579
(dp580
g18
F0.5
sg19
I5
sg20
g0
(g21
g22
(dp581
NI5
stp582
Rp583
(dp584
g19
I5
sg27
Nsg28
Nsg29
Nsbsg30
I2
sg31
F6.0
sbs(g9
Vfamily
p585
tp586
g0
(g14
g2
Ntp587
Rp588
(dp589
g18
F0.5
sg19
I3
sg20
g0
(g21
g22
(dp590
NI2
sI01
I1
stp591
Rp592
(dp593
g19
I3
sg27
Nsg28
Nsg29
Nsbsg30
I2
sg31
F4.0
sbs(g9
g559
tp594
g0
(g14
g2
Ntp595
Rp596
(dp597
g18
F0.5
sg19
I3
sg20
g0
(g21
g22
(dp598
NI3
stp599
Rp600
(dp601
g19
I3
sg27
Nsg28
Nsg29
Nsbsg30
I2
sg31
F4.0
sbs(g9
V_london
p602
tp603
g0
(g14
g2
Ntp604
Rp605
(dp606
g18
F0.5
sg19
I3
sg20
g0
(g21
g22
(dp607
NI2
sI01
I1
stp608
Rp609
(dp610
g19
I3
sg27
Nsg28
Nsg29
Nsbsg30
I2
sg31
F4.0
sbs(g8
Vgrant
p611
tp612
g0
(g14
g2
Ntp613
Rp614
(dp615
g18
F0.5
sg19
I5
sg20
g0
(g21
g22
(dp616
NI4
sI01
I1
stp617
Rp618
(dp619
g19
I5
sg27
Nsg28
Nsg29
Nsbsg30
I2
sg31
F6.0
sbs(g8
Vexcited
p620
tp621
g0
(g14
g2
Ntp622
Rp623
(dp624
g18
F0.5
sg19
I5
sg20
g0
(g21
g22
(dp625
NI4
sI01
I1
stp626
Rp627
(dp628
g19
I5
sg27
Nsg28
Nsg29
Nsbsg30
I2
sg31
F6.0
sbs(g9
g517
tp629
g0
(g14
g2
Ntp630
Rp631
(dp632
g18
F0.5
sg19
I3
sg20
g0
(g21
g22
(dp633
NI3
stp634
Rp635
(dp636
g19
I3
sg27
Nsg28
Nsg29
Nsbsg30
I2
sg31
F4.0
sbs(g9
Vmembers
p637
tp638
g0
(g14
g2
Ntp639
Rp640
(dp641
g18
F0.5
sg19
I3
sg20
g0
(g21
g22
(dp642
NI3
stp643
Rp644
(dp645
g19
I3
sg27
Nsg28
Nsg29
Nsbsg30
I2
sg31
F4.0
sbs(g9
Vthecroods
p646
tp647
g0
(g14
g2
Ntp648
Rp649
(dp650
g18
F0.5
sg19
I3
sg20
g0
(g21
g22
(dp651
NI2
sI01
I1
stp652
Rp653
(dp654
g19
I3
sg27
Nsg28
Nsg29
Nsbsg30
I2
sg31
F4.0
sbs(g9
g212
tp655
g0
(g14
g2
Ntp656
Rp657
(dp658
g18
F0.5
sg19
I3
sg20
g0
(g21
g22
(dp659
NI3
stp660
Rp661
(dp662
g19
I3
sg27
Nsg28
Nsg29
Nsbsg30
I2
sg31
F4.0
sbs(g8
g326
tp663
g0
(g14
g2
Ntp664
Rp665
(dp666
g18
F0.5
sg19
I5
sg20
g0
(g21
g22
(dp667
NI5
stp668
Rp669
(dp670
g19
I5
sg27
Nsg28
Nsg29
Nsbsg30
I2
sg31
F6.0
sbs(g9
Vstory
p671
tp672
g0
(g14
g2
Ntp673
Rp674
(dp675
g18
F0.5
sg19
I3
sg20
g0
(g21
g22
(dp676
NI2
sI01
I1
stp677
Rp678
(dp679
g19
I3
sg27
Nsg28
Nsg29
Nsbsg30
I2
sg31
F4.0
sbs(g8
Vusing
p680
tp681
g0
(g14
g2
Ntp682
Rp683
(dp684
g18
F0.5
sg19
I5
sg20
g0
(g21
g22
(dp685
NI4
sI01
I1
stp686
Rp687
(dp688
g19
I5
sg27
Nsg28
Nsg29
Nsbsg30
I2
sg31
F6.0
sbs(g8
g122
tp689
g0
(g14
g2
Ntp690
Rp691
(dp692
g18
F0.5
sg19
I5
sg20
g0
(g21
g22
(dp693
NI4
sI01
I1
stp694
Rp695
(dp696
g19
I5
sg27
Nsg28
Nsg29
Nsbsg30
I2
sg31
F6.0
sbs(g8
g203
tp697
g0
(g14
g2
Ntp698
Rp699
(dp700
g18
F0.5
sg19
I5
sg20
g0
(g21
g22
(dp701
NI5
stp702
Rp703
(dp704
g19
I5
sg27
Nsg28
Nsg29
Nsbsg30
I2
sg31
F6.0
sbs(g8
Vtrailer
p705
tp706
g0
(g14
g2
Ntp707
Rp708
(dp709
g18
F0.5
sg19
I5
sg20
g0
(g21
g22
(dp710
NI4
sI01
I1
stp711
Rp712
(dp713
g19
I5
sg27
Nsg28
Nsg29
Nsbsg30
I2
sg31
F6.0
sbs(g8
g185
tp714
g0
(g14
g2
Ntp715
Rp716
(dp717
g18
F0.5
sg19
I5
sg20
g0
(g21
g22
(dp718
NI5
stp719
Rp720
(dp721
g19
I5
sg27
Nsg28
Nsg29
Nsbsg30
I2
sg31
F6.0
sbs(g9
g194
tp722
g0
(g14
g2
Ntp723
Rp724
(dp725
g18
F0.5
sg19
I3
sg20
g0
(g21
g22
(dp726
NI3
stp727
Rp728
(dp729
g19
I3
sg27
Nsg28
Nsg29
Nsbsg30
I2
sg31
F4.0
sbs(g8
g637
tp730
g0
(g14
g2
Ntp731
Rp732
(dp733
g18
F0.5
sg19
I5
sg20
g0
(g21
g22
(dp734
NI4
sI01
I1
stp735
Rp736
(dp737
g19
I5
sg27
Nsg28
Nsg29
Nsbsg30
I2
sg31
F6.0
sbs(g9
Vevents
p738
tp739
g0
(g14
g2
Ntp740
Rp741
(dp742
g18
F0.5
sg19
I3
sg20
g0
(g21
g22
(dp743
NI3
stp744
Rp745
(dp746
g19
I3
sg27
Nsg28
Nsg29
Nsbsg30
I2
sg31
F4.0
sbs(g9
g149
tp747
g0
(g14
g2
Ntp748
Rp749
(dp750
g18
F0.5
sg19
I3
sg20
g0
(g21
g22
(dp751
NI3
stp752
Rp753
(dp754
g19
I3
sg27
Nsg28
Nsg29
Nsbsg30
I2
sg31
F4.0
sbs(g9
g158
tp755
g0
(g14
g2
Ntp756
Rp757
(dp758
g18
F0.5
sg19
I3
sg20
g0
(g21
g22
(dp759
NI2
sI01
I1
stp760
Rp761
(dp762
g19
I3
sg27
Nsg28
Nsg29
Nsbsg30
I2
sg31
F4.0
sbs(g8
g167
tp763
g0
(g14
g2
Ntp764
Rp765
(dp766
g18
F0.5
sg19
I5
sg20
g0
(g21
g22
(dp767
NI4
sI01
I1
stp768
Rp769
(dp770
g19
I5
sg27
Nsg28
Nsg29
Nsbsg30
I2
sg31
F6.0
sbs(g8
g602
tp771
g0
(g14
g2
Ntp772
Rp773
(dp774
g18
F0.5
sg19
I5
sg20
g0
(g21
g22
(dp775
NI5
stp776
Rp777
(dp778
g19
I5
sg27
Nsg28
Nsg29
Nsbsg30
I2
sg31
F6.0
sbs(g8
g465
tp779
g0
(g14
g2
Ntp780
Rp781
(dp782
g18
F0.5
sg19
I5
sg20
g0
(g21
g22
(dp783
NI5
stp784
Rp785
(dp786
g19
I5
sg27
Nsg28
Nsg29
Nsbsg30
I2
sg31
F6.0
sbs(g9
g611
tp787
g0
(g14
g2
Ntp788
Rp789
(dp790
g18
F0.5
sg19
I3
sg20
g0
(g21
g22
(dp791
NI3
stp792
Rp793
(dp794
g19
I3
sg27
Nsg28
Nsg29
Nsbsg30
I2
sg31
F4.0
sbs(g8
g140
tp795
g0
(g14
g2
Ntp796
Rp797
(dp798
g18
F0.5
sg19
I5
sg20
g0
(g21
g22
(dp799
NI5
stp800
Rp801
(dp802
g19
I5
sg27
Nsg28
Nsg29
Nsbsg30
I2
sg31
F6.0
sbs(g9
g335
tp803
g0
(g14
g2
Ntp804
Rp805
(dp806
g18
F0.5
sg19
I3
sg20
g0
(g21
g22
(dp807
NI3
stp808
Rp809
(dp810
g19
I3
sg27
Nsg28
Nsg29
Nsbsg30
I2
sg31
F4.0
sbs(g9
g59
tp811
g0
(g14
g2
Ntp812
Rp813
(dp814
g18
F0.5
sg19
I3
sg20
g0
(g21
g22
(dp815
NI3
stp816
Rp817
(dp818
g19
I3
sg27
Nsg28
Nsg29
Nsbsg30
I2
sg31
F4.0
sbs(g8
g308
tp819
g0
(g14
g2
Ntp820
Rp821
(dp822
g18
F0.5
sg19
I5
sg20
g0
(g21
g22
(dp823
NI5
stp824
Rp825
(dp826
g19
I5
sg27
Nsg28
Nsg29
Nsbsg30
I2
sg31
F6.0
sbs(g9
g239
tp827
g0
(g14
g2
Ntp828
Rp829
(dp830
g18
F0.5
sg19
I3
sg20
g0
(g21
g22
(dp831
NI3
stp832
Rp833
(dp834
g19
I3
sg27
Nsg28
Nsg29
Nsbsg30
I2
sg31
F4.0
sbs(g9
g680
tp835
g0
(g14
g2
Ntp836
Rp837
(dp838
g18
F0.5
sg19
I3
sg20
g0
(g21
g22
(dp839
NI3
stp840
Rp841
(dp842
g19
I3
sg27
Nsg28
Nsg29
Nsbsg30
I2
sg31
F4.0
sbs(g9
g281
tp843
g0
(g14
g2
Ntp844
Rp845
(dp846
g18
F0.5
sg19
I3
sg20
g0
(g21
g22
(dp847
NI3
stp848
Rp849
(dp850
g19
I3
sg27
Nsg28
Nsg29
Nsbsg30
I2
sg31
F4.0
sbs(g9
g77
tp851
g0
(g14
g2
Ntp852
Rp853
(dp854
g18
F0.5
sg19
I3
sg20
g0
(g21
g22
(dp855
NI3
stp856
Rp857
(dp858
g19
I3
sg27
Nsg28
Nsg29
Nsbsg30
I2
sg31
F4.0
sbs(g9
g221
tp859
g0
(g14
g2
Ntp860
Rp861
(dp862
g18
F0.5
sg19
I3
sg20
g0
(g21
g22
(dp863
NI2
sI01
I1
stp864
Rp865
(dp866
g19
I3
sg27
Nsg28
Nsg29
Nsbsg30
I2
sg31
F4.0
sbs(g9
g32
tp867
g0
(g14
g2
Ntp868
Rp869
(dp870
g18
F0.5
sg19
I3
sg20
g0
(g21
g22
(dp871
NI2
sI01
I1
stp872
Rp873
(dp874
g19
I3
sg27
Nsg28
Nsg29
Nsbsg30
I2
sg31
F4.0
sbs(g8
g738
tp875
g0
(g14
g2
Ntp876
Rp877
(dp878
g18
F0.5
sg19
I5
sg20
g0
(g21
g22
(dp879
NI4
sI01
I1
stp880
Rp881
(dp882
g19
I5
sg27
Nsg28
Nsg29
Nsbsg30
I2
sg31
F6.0
sbs(g9
g230
tp883
g0
(g14
g2
Ntp884
Rp885
(dp886
g18
F0.5
sg19
I3
sg20
g0
(g21
g22
(dp887
NI3
stp888
Rp889
(dp890
g19
I3
sg27
Nsg28
Nsg29
Nsbsg30
I2
sg31
F4.0
sbs(g8
Vtickets
p891
tp892
g0
(g14
g2
Ntp893
Rp894
(dp895
g18
F0.5
sg19
I5
sg20
g0
(g21
g22
(dp896
NI4
sI01
I1
stp897
Rp898
(dp899
g19
I5
sg27
Nsg28
Nsg29
Nsbsg30
I2
sg31
F6.0
sbs(g9
g380
tp900
g0
(g14
g2
Ntp901
Rp902
(dp903
g18
F0.5
sg19
I3
sg20
g0
(g21
g22
(dp904
NI2
sI01
I1
stp905
Rp906
(dp907
g19
I3
sg27
Nsg28
Nsg29
Nsbsg30
I2
sg31
F4.0
sbs(g9
Vmichael
p908
tp909
g0
(g14
g2
Ntp910
Rp911
(dp912
g18
F0.5
sg19
I3
sg20
g0
(g21
g22
(dp913
NI3
stp914
Rp915
(dp916
g19
I3
sg27
Nsg28
Nsg29
Nsbsg30
I2
sg31
F4.0
sbs(g9
Vamp
p917
tp918
g0
(g14
g2
Ntp919
Rp920
(dp921
g18
F0.5
sg19
I3
sg20
g0
(g21
g22
(dp922
NI3
stp923
Rp924
(dp925
g19
I3
sg27
Nsg28
Nsg29
Nsbsg30
I2
sg31
F4.0
sbs(g8
g317
tp926
g0
(g14
g2
Ntp927
Rp928
(dp929
g18
F0.5
sg19
I5
sg20
g0
(g21
g22
(dp930
NI5
stp931
Rp932
(dp933
g19
I5
sg27
Nsg28
Nsg29
Nsbsg30
I2
sg31
F6.0
sbs(g9
Vexcited
p934
tp935
g0
(g14
g2
Ntp936
Rp937
(dp938
g18
F0.5
sg19
I3
sg20
g0
(g21
g22
(dp939
NI2
sI01
I1
stp940
Rp941
(dp942
g19
I3
sg27
Nsg28
Nsg29
Nsbsg30
I2
sg31
F4.0
sbs(g8
g264
tp943
g0
(g14
g2
Ntp944
Rp945
(dp946
g18
F0.5
sg19
I5
sg20
g0
(g21
g22
(dp947
NI4
sI01
I1
stp948
Rp949
(dp950
g19
I5
sg27
Nsg28
Nsg29
Nsbsg30
I2
sg31
F6.0
sbs(g8
g585
tp951
g0
(g14
g2
Ntp952
Rp953
(dp954
g18
F0.5
sg19
I5
sg20
g0
(g21
g22
(dp955
NI5
stp956
Rp957
(dp958
g19
I5
sg27
Nsg28
Nsg29
Nsbsg30
I2
sg31
F6.0
sbs(g8
g908
tp959
g0
(g14
g2
Ntp960
Rp961
(dp962
g18
F0.5
sg19
I5
sg20
g0
(g21
g22
(dp963
NI4
sI01
I1
stp964
Rp965
(dp966
g19
I5
sg27
Nsg28
Nsg29
Nsbsg30
I2
sg31
F6.0
sbs(g9
g534
tp967
g0
(g14
g2
Ntp968
Rp969
(dp970
g18
F0.5
sg19
I3
sg20
g0
(g21
g22
(dp971
NI3
stp972
Rp973
(dp974
g19
I3
sg27
Nsg28
Nsg29
Nsbsg30
I2
sg31
F4.0
sbs(g9
g474
tp975
g0
(g14
g2
Ntp976
Rp977
(dp978
g18
F0.5
sg19
I3
sg20
g0
(g21
g22
(dp979
NI2
sI01
I1
stp980
Rp981
(dp982
g19
I3
sg27
Nsg28
Nsg29
Nsbsg30
I2
sg31
F4.0
sbs(g9
g705
tp983
g0
(g14
g2
Ntp984
Rp985
(dp986
g18
F0.5
sg19
I3
sg20
g0
(g21
g22
(dp987
NI3
stp988
Rp989
(dp990
g19
I3
sg27
Nsg28
Nsg29
Nsbsg30
I2
sg31
F4.0
sbs(g9
g491
tp991
g0
(g14
g2
Ntp992
Rp993
(dp994
g18
F0.5
sg19
I3
sg20
g0
(g21
g22
(dp995
NI3
stp996
Rp997
(dp998
g19
I3
sg27
Nsg28
Nsg29
Nsbsg30
I2
sg31
F4.0
sbs(g9
Vsee
p999
tp1000
g0
(g14
g2
Ntp1001
Rp1002
(dp1003
g18
F0.5
sg19
I3
sg20
g0
(g21
g22
(dp1004
NI2
sI01
I1
stp1005
Rp1006
(dp1007
g19
I3
sg27
Nsg28
Nsg29
Nsbsg30
I2
sg31
F4.0
sbs(g8
g917
tp1008
g0
(g14
g2
Ntp1009
Rp1010
(dp1011
g18
F0.5
sg19
I5
sg20
g0
(g21
g22
(dp1012
NI4
sI01
I1
stp1013
Rp1014
(dp1015
g19
I5
sg27
Nsg28
Nsg29
Nsbsg30
I2
sg31
F6.0
sbs(g8
g50
tp1016
g0
(g14
g2
Ntp1017
Rp1018
(dp1019
g18
F0.5
sg19
I5
sg20
g0
(g21
g22
(dp1020
NI4
sI01
I1
stp1021
Rp1022
(dp1023
g19
I5
sg27
Nsg28
Nsg29
Nsbsg30
I2
sg31
F6.0
sbs(g9
g439
tp1024
g0
(g14
g2
Ntp1025
Rp1026
(dp1027
g18
F0.5
sg19
I3
sg20
g0
(g21
g22
(dp1028
NI2
sI01
I1
stp1029
Rp1030
(dp1031
g19
I3
sg27
Nsg28
Nsg29
Nsbsg30
I2
sg31
F4.0
sbs(g9
g891
tp1032
g0
(g14
g2
Ntp1033
Rp1034
(dp1035
g18
F0.5
sg19
I3
sg20
g0
(g21
g22
(dp1036
NI3
stp1037
Rp1038
(dp1039
g19
I3
sg27
Nsg28
Nsg29
Nsbsg30
I2
sg31
F4.0
sbs(g8
g456
tp1040
g0
(g14
g2
Ntp1041
Rp1042
(dp1043
g18
F0.5
sg19
I5
sg20
g0
(g21
g22
(dp1044
NI4
sI01
I1
stp1045
Rp1046
(dp1047
g19
I5
sg27
Nsg28
Nsg29
Nsbsg30
I2
sg31
F6.0
sbs(g8
Vwin
p1048
tp1049
g0
(g14
g2
Ntp1050
Rp1051
(dp1052
g18
F0.5
sg19
I5
sg20
g0
(g21
g22
(dp1053
NI4
sI01
I1
stp1054
Rp1055
(dp1056
g19
I5
sg27
Nsg28
Nsg29
Nsbsg30
I2
sg31
F6.0
sbs(g8
g646
tp1057
g0
(g14
g2
Ntp1058
Rp1059
(dp1060
g18
F0.5
sg19
I5
sg20
g0
(g21
g22
(dp1061
NI5
stp1062
Rp1063
(dp1064
g19
I5
sg27
Nsg28
Nsg29
Nsbsg30
I2
sg31
F6.0
sbs(g8
g671
tp1065
g0
(g14
g2
Ntp1066
Rp1067
(dp1068
g18
F0.5
sg19
I5
sg20
g0
(g21
g22
(dp1069
NI5
stp1070
Rp1071
(dp1072
g19
I5
sg27
Nsg28
Nsg29
Nsbsg30
I2
sg31
F6.0
sbs(g9
Vbring
p1073
tp1074
g0
(g14
g2
Ntp1075
Rp1076
(dp1077
g18
F0.5
sg19
I3
sg20
g0
(g21
g22
(dp1078
NI2
sI01
I1
stp1079
Rp1080
(dp1081
g19
I3
sg27
Nsg28
Nsg29
Nsbsg30
I2
sg31
F4.0
sbs(g8
g1073
tp1082
g0
(g14
g2
Ntp1083
Rp1084
(dp1085
g18
F0.5
sg19
I5
sg20
g0
(g21
g22
(dp1086
NI5
stp1087
Rp1088
(dp1089
g19
I5
sg27
Nsg28
Nsg29
Nsbsg30
I2
sg31
F6.0
sbs(g9
g576
tp1090
g0
(g14
g2
Ntp1091
Rp1092
(dp1093
g18
F0.5
sg19
I3
sg20
g0
(g21
g22
(dp1094
NI2
sI01
I1
stp1095
Rp1096
(dp1097
g19
I3
sg27
Nsg28
Nsg29
Nsbsg30
I2
sg31
F4.0
sbs(g9
Vsigning
p1098
tp1099
g0
(g14
g2
Ntp1100
Rp1101
(dp1102
g18
F0.5
sg19
I3
sg20
g0
(g21
g22
(dp1103
NI2
sI01
I1
stp1104
Rp1105
(dp1106
g19
I3
sg27
Nsg28
Nsg29
Nsbsg30
I2
sg31
F4.0
sbs(g8
g104
tp1107
g0
(g14
g2
Ntp1108
Rp1109
(dp1110
g18
F0.5
sg19
I5
sg20
g0
(g21
g22
(dp1111
NI4
sI01
I1
stp1112
Rp1113
(dp1114
g19
I5
sg27
Nsg28
Nsg29
Nsbsg30
I2
sg31
F6.0
sbs(g9
g1048
tp1115
g0
(g14
g2
Ntp1116
Rp1117
(dp1118
g18
F0.5
sg19
I3
sg20
g0
(g21
g22
(dp1119
NI3
stp1120
Rp1121
(dp1122
g19
I3
sg27
Nsg28
Nsg29
Nsbsg30
I2
sg31
F4.0
sbs(g8
g131
tp1123
g0
(g14
g2
Ntp1124
Rp1125
(dp1126
g18
F0.5
sg19
I5
sg20
g0
(g21
g22
(dp1127
NI5
stp1128
Rp1129
(dp1130
g19
I5
sg27
Nsg28
Nsg29
Nsbsg30
I2
sg31
F6.0
sbssS'_label_probdist'
p1131
g0
(g14
g2
Ntp1132
Rp1133
(dp1134
g18
F0.5
sg19
I8
sg20
g0
(g21
g22
(dp1135
g9
I3
sg8
I5
stp1136
Rp1137
(dp1138
g19
I8
sg27
Nsg28
(lp1139
(g8
I5
tp1140
a(g9
I3
tp1141
asg29
Nsbsg30
I2
sg31
F9.0
sbsb.