ccopy_reg
_reconstructor
p0
(cnltk.classify.naivebayes
NaiveBayesClassifier
p1
c__builtin__
object
p2
Ntp3
Rp4
(dp5
S'_labels'
p6
(lp7
V Neg
p8
aVPos
p9
aV Neut
p10
asS'_feature_probdist'
p11
(dp12
(g10
Vcould
p13
tp14
g0
(cnltk.probability
ELEProbDist
p15
g2
Ntp16
Rp17
(dp18
S'_gamma'
p19
F0.5
sS'_N'
p20
I2
sS'_freqdist'
p21
g0
(cnltk.probability
FreqDist
p22
c__builtin__
dict
p23
(dp24
NI1
sI01
I1
stp25
Rp26
(dp27
g20
I2
sS'_max_cache'
p28
NsS'_item_cache'
p29
NsS'_Nr_cache'
p30
NsbsS'_bins'
p31
I2
sS'_divisor'
p32
F3.0
sbs(g9
Vhashtag
p33
tp34
g0
(g15
g2
Ntp35
Rp36
(dp37
g19
F0.5
sg20
I3
sg21
g0
(g22
g23
(dp38
NI3
stp39
Rp40
(dp41
g20
I3
sg28
Nsg29
Nsg30
Nsbsg31
I2
sg32
F4.0
sbs(g10
Vtoday
p42
tp43
g0
(g15
g2
Ntp44
Rp45
(dp46
g19
F0.5
sg20
I2
sg21
g0
(g22
g23
(dp47
NI1
sI01
I1
stp48
Rp49
(dp50
g20
I2
sg28
Nsg29
Nsg30
Nsbsg31
I2
sg32
F3.0
sbs(g8
Vamp
p51
tp52
g0
(g15
g2
Ntp53
Rp54
(dp55
g19
F0.5
sg20
I3
sg21
g0
(g22
g23
(dp56
NI2
sI01
I1
stp57
Rp58
(dp59
g20
I3
sg28
Nsg29
Nsg30
Nsbsg31
I2
sg32
F4.0
sbs(g8
Vsee
p60
tp61
g0
(g15
g2
Ntp62
Rp63
(dp64
g19
F0.5
sg20
I3
sg21
g0
(g22
g23
(dp65
NI3
stp66
Rp67
(dp68
g20
I3
sg28
Nsg29
Nsg30
Nsbsg31
I2
sg32
F4.0
sbs(g9
Vachieves
p69
tp70
g0
(g15
g2
Ntp71
Rp72
(dp73
g19
F0.5
sg20
I3
sg21
g0
(g22
g23
(dp74
NI3
stp75
Rp76
(dp77
g20
I3
sg28
Nsg29
Nsg30
Nsbsg31
I2
sg32
F4.0
sbs(g10
Vget
p78
tp79
g0
(g15
g2
Ntp80
Rp81
(dp82
g19
F0.5
sg20
I2
sg21
g0
(g22
g23
(dp83
NI1
sI01
I1
stp84
Rp85
(dp86
g20
I2
sg28
Nsg29
Nsg30
Nsbsg31
I2
sg32
F3.0
sbs(g9
Vcertificate
p87
tp88
g0
(g15
g2
Ntp89
Rp90
(dp91
g19
F0.5
sg20
I3
sg21
g0
(g22
g23
(dp92
NI2
sI01
I1
stp93
Rp94
(dp95
g20
I3
sg28
Nsg29
Nsg30
Nsbsg31
I2
sg32
F4.0
sbs(g9
g42
tp96
g0
(g15
g2
Ntp97
Rp98
(dp99
g19
F0.5
sg20
I3
sg21
g0
(g22
g23
(dp100
NI3
stp101
Rp102
(dp103
g20
I3
sg28
Nsg29
Nsg30
Nsbsg31
I2
sg32
F4.0
sbs(g8
Vtheoryofadeadman
p104
tp105
g0
(g15
g2
Ntp106
Rp107
(dp108
g19
F0.5
sg20
I3
sg21
g0
(g22
g23
(dp109
NI2
sI01
I1
stp110
Rp111
(dp112
g20
I3
sg28
Nsg29
Nsg30
Nsbsg31
I2
sg32
F4.0
sbs(g9
Vtwinpeaks
p113
tp114
g0
(g15
g2
Ntp115
Rp116
(dp117
g19
F0.5
sg20
I3
sg21
g0
(g22
g23
(dp118
NI2
sI01
I1
stp119
Rp120
(dp121
g20
I3
sg28
Nsg29
Nsg30
Nsbsg31
I2
sg32
F4.0
sbs(g10
Vstore
p122
tp123
g0
(g15
g2
Ntp124
Rp125
(dp126
g19
F0.5
sg20
I2
sg21
g0
(g22
g23
(dp127
NI2
stp128
Rp129
(dp130
g20
I2
sg28
Nsg29
Nsg30
Nsbsg31
I2
sg32
F3.0
sbs(g9
Vbamhmvsignings
p131
tp132
g0
(g15
g2
Ntp133
Rp134
(dp135
g19
F0.5
sg20
I3
sg21
g0
(g22
g23
(dp136
NI3
stp137
Rp138
(dp139
g20
I3
sg28
Nsg29
Nsg30
Nsbsg31
I2
sg32
F4.0
sbs(g9
Vlet
p140
tp141
g0
(g15
g2
Ntp142
Rp143
(dp144
g19
F0.5
sg20
I3
sg21
g0
(g22
g23
(dp145
NI2
sI01
I1
stp146
Rp147
(dp148
g20
I3
sg28
Nsg29
Nsg30
Nsbsg31
I2
sg32
F4.0
sbs(g8
Vuse
p149
tp150
g0
(g15
g2
Ntp151
Rp152
(dp153
g19
F0.5
sg20
I3
sg21
g0
(g22
g23
(dp154
NI2
sI01
I1
stp155
Rp156
(dp157
g20
I3
sg28
Nsg29
Nsg30
Nsbsg31
I2
sg32
F4.0
sbs(g9
Vrun
p158
tp159
g0
(g15
g2
Ntp160
Rp161
(dp162
g19
F0.5
sg20
I3
sg21
g0
(g22
g23
(dp163
NI3
stp164
Rp165
(dp166
g20
I3
sg28
Nsg29
Nsg30
Nsbsg31
I2
sg32
F4.0
sbs(g9
Vone
p167
tp168
g0
(g15
g2
Ntp169
Rp170
(dp171
g19
F0.5
sg20
I3
sg21
g0
(g22
g23
(dp172
NI3
stp173
Rp174
(dp175
g20
I3
sg28
Nsg29
Nsg30
Nsbsg31
I2
sg32
F4.0
sbs(g9
Valbums
p176
tp177
g0
(g15
g2
Ntp178
Rp179
(dp180
g19
F0.5
sg20
I3
sg21
g0
(g22
g23
(dp181
NI3
stp182
Rp183
(dp184
g20
I3
sg28
Nsg29
Nsg30
Nsbsg31
I2
sg32
F4.0
sbs(g9
Vjennylewis
p185
tp186
g0
(g15
g2
Ntp187
Rp188
(dp189
g19
F0.5
sg20
I3
sg21
g0
(g22
g23
(dp190
NI3
stp191
Rp192
(dp193
g20
I3
sg28
Nsg29
Nsg30
Nsbsg31
I2
sg32
F4.0
sbs(g10
Vfast
p194
tp195
g0
(g15
g2
Ntp196
Rp197
(dp198
g19
F0.5
sg20
I2
sg21
g0
(g22
g23
(dp199
NI2
stp200
Rp201
(dp202
g20
I2
sg28
Nsg29
Nsg30
Nsbsg31
I2
sg32
F3.0
sbs(g9
Vorder
p203
tp204
g0
(g15
g2
Ntp205
Rp206
(dp207
g19
F0.5
sg20
I3
sg21
g0
(g22
g23
(dp208
NI1
sI01
I2
stp209
Rp210
(dp211
g20
I3
sg28
Nsg29
Nsg30
Nsbsg31
I2
sg32
F4.0
sbs(g9
Vread
p212
tp213
g0
(g15
g2
Ntp214
Rp215
(dp216
g19
F0.5
sg20
I3
sg21
g0
(g22
g23
(dp217
NI2
sI01
I1
stp218
Rp219
(dp220
g20
I3
sg28
Nsg29
Nsg30
Nsbsg31
I2
sg32
F4.0
sbs(g8
Vdvds
p221
tp222
g0
(g15
g2
Ntp223
Rp224
(dp225
g19
F0.5
sg20
I3
sg21
g0
(g22
g23
(dp226
NI3
stp227
Rp228
(dp229
g20
I3
sg28
Nsg29
Nsg30
Nsbsg31
I2
sg32
F4.0
sbs(g9
Vedsheeran
p230
tp231
g0
(g15
g2
Ntp232
Rp233
(dp234
g19
F0.5
sg20
I3
sg21
g0
(g22
g23
(dp235
NI3
stp236
Rp237
(dp238
g20
I3
sg28
Nsg29
Nsg30
Nsbsg31
I2
sg32
F4.0
sbs(g9
Vlongest
p239
tp240
g0
(g15
g2
Ntp241
Rp242
(dp243
g19
F0.5
sg20
I3
sg21
g0
(g22
g23
(dp244
NI3
stp245
Rp246
(dp247
g20
I3
sg28
Nsg29
Nsg30
Nsbsg31
I2
sg32
F4.0
sbs(g9
Valbum
p248
tp249
g0
(g15
g2
Ntp250
Rp251
(dp252
g19
F0.5
sg20
I3
sg21
g0
(g22
g23
(dp253
NI3
stp254
Rp255
(dp256
g20
I3
sg28
Nsg29
Nsg30
Nsbsg31
I2
sg32
F4.0
sbs(g10
Vteam
p257
tp258
g0
(g15
g2
Ntp259
Rp260
(dp261
g19
F0.5
sg20
I2
sg21
g0
(g22
g23
(dp262
NI2
stp263
Rp264
(dp265
g20
I2
sg28
Nsg29
Nsg30
Nsbsg31
I2
sg32
F3.0
sbs(g10
g113
tp266
g0
(g15
g2
Ntp267
Rp268
(dp269
g19
F0.5
sg20
I2
sg21
g0
(g22
g23
(dp270
NI2
stp271
Rp272
(dp273
g20
I2
sg28
Nsg29
Nsg30
Nsbsg31
I2
sg32
F3.0
sbs(g8
Vwelcometothejungle
p274
tp275
g0
(g15
g2
Ntp276
Rp277
(dp278
g19
F0.5
sg20
I3
sg21
g0
(g22
g23
(dp279
NI3
stp280
Rp281
(dp282
g20
I3
sg28
Nsg29
Nsg30
Nsbsg31
I2
sg32
F4.0
sbs(g10
Vcherlloyd
p283
tp284
g0
(g15
g2
Ntp285
Rp286
(dp287
g19
F0.5
sg20
I2
sg21
g0
(g22
g23
(dp288
NI2
stp289
Rp290
(dp291
g20
I2
sg28
Nsg29
Nsg30
Nsbsg31
I2
sg32
F3.0
sbs(g8
V_grise
p292
tp293
g0
(g15
g2
Ntp294
Rp295
(dp296
g19
F0.5
sg20
I3
sg21
g0
(g22
g23
(dp297
NI3
stp298
Rp299
(dp300
g20
I3
sg28
Nsg29
Nsg30
Nsbsg31
I2
sg32
F4.0
sbs(g10
Vthanks
p301
tp302
g0
(g15
g2
Ntp303
Rp304
(dp305
g19
F0.5
sg20
I2
sg21
g0
(g22
g23
(dp306
NI2
stp307
Rp308
(dp309
g20
I2
sg28
Nsg29
Nsg30
Nsbsg31
I2
sg32
F3.0
sbs(g9
Valongwaydown
p310
tp311
g0
(g15
g2
Ntp312
Rp313
(dp314
g19
F0.5
sg20
I3
sg21
g0
(g22
g23
(dp315
NI2
sI01
I1
stp316
Rp317
(dp318
g20
I3
sg28
Nsg29
Nsg30
Nsbsg31
I2
sg32
F4.0
sbs(g9
Vwearethebest
p319
tp320
g0
(g15
g2
Ntp321
Rp322
(dp323
g19
F0.5
sg20
I3
sg21
g0
(g22
g23
(dp324
NI2
sI01
I1
stp325
Rp326
(dp327
g20
I3
sg28
Nsg29
Nsg30
Nsbsg31
I2
sg32
F4.0
sbs(g10
g230
tp328
g0
(g15
g2
Ntp329
Rp330
(dp331
g19
F0.5
sg20
I2
sg21
g0
(g22
g23
(dp332
NI2
stp333
Rp334
(dp335
g20
I2
sg28
Nsg29
Nsg30
Nsbsg31
I2
sg32
F3.0
sbs(g10
Vbuying
p336
tp337
g0
(g15
g2
Ntp338
Rp339
(dp340
g19
F0.5
sg20
I2
sg21
g0
(g22
g23
(dp341
NI2
stp342
Rp343
(dp344
g20
I2
sg28
Nsg29
Nsg30
Nsbsg31
I2
sg32
F3.0
sbs(g9
Vsoon
p345
tp346
g0
(g15
g2
Ntp347
Rp348
(dp349
g19
F0.5
sg20
I3
sg21
g0
(g22
g23
(dp350
NI2
sI01
I1
stp351
Rp352
(dp353
g20
I3
sg28
Nsg29
Nsg30
Nsbsg31
I2
sg32
F4.0
sbs(g10
g158
tp354
g0
(g15
g2
Ntp355
Rp356
(dp357
g19
F0.5
sg20
I2
sg21
g0
(g22
g23
(dp358
NI2
stp359
Rp360
(dp361
g20
I2
sg28
Nsg29
Nsg30
Nsbsg31
I2
sg32
F3.0
sbs(g8
Vnew
p362
tp363
g0
(g15
g2
Ntp364
Rp365
(dp366
g19
F0.5
sg20
I3
sg21
g0
(g22
g23
(dp367
NI2
sI01
I1
stp368
Rp369
(dp370
g20
I3
sg28
Nsg29
Nsg30
Nsbsg31
I2
sg32
F4.0
sbs(g10
g185
tp371
g0
(g15
g2
Ntp372
Rp373
(dp374
g19
F0.5
sg20
I2
sg21
g0
(g22
g23
(dp375
NI2
stp376
Rp377
(dp378
g20
I2
sg28
Nsg29
Nsg30
Nsbsg31
I2
sg32
F3.0
sbs(g10
Vhopeful
p379
tp380
g0
(g15
g2
Ntp381
Rp382
(dp383
g19
F0.5
sg20
I2
sg21
g0
(g22
g23
(dp384
NI2
stp385
Rp386
(dp387
g20
I2
sg28
Nsg29
Nsg30
Nsbsg31
I2
sg32
F3.0
sbs(g10
Vnumber
p388
tp389
g0
(g15
g2
Ntp390
Rp391
(dp392
g19
F0.5
sg20
I2
sg21
g0
(g22
g23
(dp393
NI2
stp394
Rp395
(dp396
g20
I2
sg28
Nsg29
Nsg30
Nsbsg31
I2
sg32
F3.0
sbs(g10
Vadele
p397
tp398
g0
(g15
g2
Ntp399
Rp400
(dp401
g19
F0.5
sg20
I2
sg21
g0
(g22
g23
(dp402
NI2
stp403
Rp404
(dp405
g20
I2
sg28
Nsg29
Nsg30
Nsbsg31
I2
sg32
F3.0
sbs(g8
g140
tp406
g0
(g15
g2
Ntp407
Rp408
(dp409
g19
F0.5
sg20
I3
sg21
g0
(g22
g23
(dp410
NI3
stp411
Rp412
(dp413
g20
I3
sg28
Nsg29
Nsg30
Nsbsg31
I2
sg32
F4.0
sbs(g8
Vconsecutive
p414
tp415
g0
(g15
g2
Ntp416
Rp417
(dp418
g19
F0.5
sg20
I3
sg21
g0
(g22
g23
(dp419
NI2
sI01
I1
stp420
Rp421
(dp422
g20
I3
sg28
Nsg29
Nsg30
Nsbsg31
I2
sg32
F4.0
sbs(g10
g212
tp423
g0
(g15
g2
Ntp424
Rp425
(dp426
g19
F0.5
sg20
I2
sg21
g0
(g22
g23
(dp427
NI2
stp428
Rp429
(dp430
g20
I2
sg28
Nsg29
Nsg30
Nsbsg31
I2
sg32
F3.0
sbs(g9
Vtompetty
p431
tp432
g0
(g15
g2
Ntp433
Rp434
(dp435
g19
F0.5
sg20
I3
sg21
g0
(g22
g23
(dp436
NI3
stp437
Rp438
(dp439
g20
I3
sg28
Nsg29
Nsg30
Nsbsg31
I2
sg32
F4.0
sbs(g8
V_cafe
p440
tp441
g0
(g15
g2
Ntp442
Rp443
(dp444
g19
F0.5
sg20
I3
sg21
g0
(g22
g23
(dp445
NI3
stp446
Rp447
(dp448
g20
I3
sg28
Nsg29
Nsg30
Nsbsg31
I2
sg32
F4.0
sbs(g8
g122
tp449
g0
(g15
g2
Ntp450
Rp451
(dp452
g19
F0.5
sg20
I3
sg21
g0
(g22
g23
(dp453
NI2
sI01
I1
stp454
Rp455
(dp456
g20
I3
sg28
Nsg29
Nsg30
Nsbsg31
I2
sg32
F4.0
sbs(g8
g78
tp457
g0
(g15
g2
Ntp458
Rp459
(dp460
g19
F0.5
sg20
I3
sg21
g0
(g22
g23
(dp461
NI3
stp462
Rp463
(dp464
g20
I3
sg28
Nsg29
Nsg30
Nsbsg31
I2
sg32
F4.0
sbs(g9
g274
tp465
g0
(g15
g2
Ntp466
Rp467
(dp468
g19
F0.5
sg20
I3
sg21
g0
(g22
g23
(dp469
NI3
stp470
Rp471
(dp472
g20
I3
sg28
Nsg29
Nsg30
Nsbsg31
I2
sg32
F4.0
sbs(g10
g319
tp473
g0
(g15
g2
Ntp474
Rp475
(dp476
g19
F0.5
sg20
I2
sg21
g0
(g22
g23
(dp477
NI2
stp478
Rp479
(dp480
g20
I2
sg28
Nsg29
Nsg30
Nsbsg31
I2
sg32
F3.0
sbs(g8
Vpics
p481
tp482
g0
(g15
g2
Ntp483
Rp484
(dp485
g19
F0.5
sg20
I3
sg21
g0
(g22
g23
(dp486
NI2
sI01
I1
stp487
Rp488
(dp489
g20
I3
sg28
Nsg29
Nsg30
Nsbsg31
I2
sg32
F4.0
sbs(g10
g104
tp490
g0
(g15
g2
Ntp491
Rp492
(dp493
g19
F0.5
sg20
I2
sg21
g0
(g22
g23
(dp494
NI2
stp495
Rp496
(dp497
g20
I2
sg28
Nsg29
Nsg30
Nsbsg31
I2
sg32
F3.0
sbs(g10
g292
tp498
g0
(g15
g2
Ntp499
Rp500
(dp501
g19
F0.5
sg20
I2
sg21
g0
(g22
g23
(dp502
NI2
stp503
Rp504
(dp505
g20
I2
sg28
Nsg29
Nsg30
Nsbsg31
I2
sg32
F3.0
sbs(g8
Varrives
p506
tp507
g0
(g15
g2
Ntp508
Rp509
(dp510
g19
F0.5
sg20
I3
sg21
g0
(g22
g23
(dp511
NI3
stp512
Rp513
(dp514
g20
I3
sg28
Nsg29
Nsg30
Nsbsg31
I2
sg32
F4.0
sbs(g9
g397
tp515
g0
(g15
g2
Ntp516
Rp517
(dp518
g19
F0.5
sg20
I3
sg21
g0
(g22
g23
(dp519
NI3
stp520
Rp521
(dp522
g20
I3
sg28
Nsg29
Nsg30
Nsbsg31
I2
sg32
F4.0
sbs(g9
Vtweet
p523
tp524
g0
(g15
g2
Ntp525
Rp526
(dp527
g19
F0.5
sg20
I3
sg21
g0
(g22
g23
(dp528
NI3
stp529
Rp530
(dp531
g20
I3
sg28
Nsg29
Nsg30
Nsbsg31
I2
sg32
F4.0
sbs(g8
Vcelebrate
p532
tp533
g0
(g15
g2
Ntp534
Rp535
(dp536
g19
F0.5
sg20
I3
sg21
g0
(g22
g23
(dp537
NI3
stp538
Rp539
(dp540
g20
I3
sg28
Nsg29
Nsg30
Nsbsg31
I2
sg32
F4.0
sbs(g8
g203
tp541
g0
(g15
g2
Ntp542
Rp543
(dp544
g19
F0.5
sg20
I3
sg21
g0
(g22
g23
(dp545
NI3
stp546
Rp547
(dp548
g20
I3
sg28
Nsg29
Nsg30
Nsbsg31
I2
sg32
F4.0
sbs(g10
Vsince
p549
tp550
g0
(g15
g2
Ntp551
Rp552
(dp553
g19
F0.5
sg20
I2
sg21
g0
(g22
g23
(dp554
NI2
stp555
Rp556
(dp557
g20
I2
sg28
Nsg29
Nsg30
Nsbsg31
I2
sg32
F3.0
sbs(g10
Vburleigh
p558
tp559
g0
(g15
g2
Ntp560
Rp561
(dp562
g19
F0.5
sg20
I2
sg21
g0
(g22
g23
(dp563
NI2
stp564
Rp565
(dp566
g20
I2
sg28
Nsg29
Nsg30
Nsbsg31
I2
sg32
F3.0
sbs(g8
Vplease
p567
tp568
g0
(g15
g2
Ntp569
Rp570
(dp571
g19
F0.5
sg20
I3
sg21
g0
(g22
g23
(dp572
NI3
stp573
Rp574
(dp575
g20
I3
sg28
Nsg29
Nsg30
Nsbsg31
I2
sg32
F4.0
sbs(g8
g158
tp576
g0
(g15
g2
Ntp577
Rp578
(dp579
g19
F0.5
sg20
I3
sg21
g0
(g22
g23
(dp580
NI2
sI01
I1
stp581
Rp582
(dp583
g20
I3
sg28
Nsg29
Nsg30
Nsbsg31
I2
sg32
F4.0
sbs(g9
g506
tp584
g0
(g15
g2
Ntp585
Rp586
(dp587
g19
F0.5
sg20
I3
sg21
g0
(g22
g23
(dp588
NI2
sI01
I1
stp589
Rp590
(dp591
g20
I3
sg28
Nsg29
Nsg30
Nsbsg31
I2
sg32
F4.0
sbs(g9
Vpost
p592
tp593
g0
(g15
g2
Ntp594
Rp595
(dp596
g19
F0.5
sg20
I3
sg21
g0
(g22
g23
(dp597
NI3
stp598
Rp599
(dp600
g20
I3
sg28
Nsg29
Nsg30
Nsbsg31
I2
sg32
F4.0
sbs(g8
g185
tp601
g0
(g15
g2
Ntp602
Rp603
(dp604
g19
F0.5
sg20
I3
sg21
g0
(g22
g23
(dp605
NI2
sI01
I1
stp606
Rp607
(dp608
g20
I3
sg28
Nsg29
Nsg30
Nsbsg31
I2
sg32
F4.0
sbs(g9
Vnoah
p609
tp610
g0
(g15
g2
Ntp611
Rp612
(dp613
g19
F0.5
sg20
I3
sg21
g0
(g22
g23
(dp614
NI2
sI01
I1
stp615
Rp616
(dp617
g20
I3
sg28
Nsg29
Nsg30
Nsbsg31
I2
sg32
F4.0
sbs(g8
g113
tp618
g0
(g15
g2
Ntp619
Rp620
(dp621
g19
F0.5
sg20
I3
sg21
g0
(g22
g23
(dp622
NI3
stp623
Rp624
(dp625
g20
I3
sg28
Nsg29
Nsg30
Nsbsg31
I2
sg32
F4.0
sbs(g8
g319
tp626
g0
(g15
g2
Ntp627
Rp628
(dp629
g19
F0.5
sg20
I3
sg21
g0
(g22
g23
(dp630
NI3
stp631
Rp632
(dp633
g20
I3
sg28
Nsg29
Nsg30
Nsbsg31
I2
sg32
F4.0
sbs(g9
Vpackage
p634
tp635
g0
(g15
g2
Ntp636
Rp637
(dp638
g19
F0.5
sg20
I3
sg21
g0
(g22
g23
(dp639
NI2
sI01
I1
stp640
Rp641
(dp642
g20
I3
sg28
Nsg29
Nsg30
Nsbsg31
I2
sg32
F4.0
sbs(g9
Vguide
p643
tp644
g0
(g15
g2
Ntp645
Rp646
(dp647
g19
F0.5
sg20
I3
sg21
g0
(g22
g23
(dp648
NI3
stp649
Rp650
(dp651
g20
I3
sg28
Nsg29
Nsg30
Nsbsg31
I2
sg32
F4.0
sbs(g8
g194
tp652
g0
(g15
g2
Ntp653
Rp654
(dp655
g19
F0.5
sg20
I3
sg21
g0
(g22
g23
(dp656
NI3
stp657
Rp658
(dp659
g20
I3
sg28
Nsg29
Nsg30
Nsbsg31
I2
sg32
F4.0
sbs(g9
g532
tp660
g0
(g15
g2
Ntp661
Rp662
(dp663
g19
F0.5
sg20
I3
sg21
g0
(g22
g23
(dp664
NI3
stp665
Rp666
(dp667
g20
I3
sg28
Nsg29
Nsg30
Nsbsg31
I2
sg32
F4.0
sbs(g8
g397
tp668
g0
(g15
g2
Ntp669
Rp670
(dp671
g19
F0.5
sg20
I3
sg21
g0
(g22
g23
(dp672
NI2
sI01
I1
stp673
Rp674
(dp675
g20
I3
sg28
Nsg29
Nsg30
Nsbsg31
I2
sg32
F4.0
sbs(g8
Vpond
p676
tp677
g0
(g15
g2
Ntp678
Rp679
(dp680
g19
F0.5
sg20
I3
sg21
g0
(g22
g23
(dp681
NI3
stp682
Rp683
(dp684
g20
I3
sg28
Nsg29
Nsg30
Nsbsg31
I2
sg32
F4.0
sbs(g9
Vrundown
p685
tp686
g0
(g15
g2
Ntp687
Rp688
(dp689
g19
F0.5
sg20
I3
sg21
g0
(g22
g23
(dp690
NI2
sI01
I1
stp691
Rp692
(dp693
g20
I3
sg28
Nsg29
Nsg30
Nsbsg31
I2
sg32
F4.0
sbs(g10
g523
tp694
g0
(g15
g2
Ntp695
Rp696
(dp697
g19
F0.5
sg20
I2
sg21
g0
(g22
g23
(dp698
NI2
stp699
Rp700
(dp701
g20
I2
sg28
Nsg29
Nsg30
Nsbsg31
I2
sg32
F3.0
sbs(g10
g131
tp702
g0
(g15
g2
Ntp703
Rp704
(dp705
g19
F0.5
sg20
I2
sg21
g0
(g22
g23
(dp706
NI1
sI01
I1
stp707
Rp708
(dp709
g20
I2
sg28
Nsg29
Nsg30
Nsbsg31
I2
sg32
F3.0
sbs(g10
g274
tp710
g0
(g15
g2
Ntp711
Rp712
(dp713
g19
F0.5
sg20
I2
sg21
g0
(g22
g23
(dp714
NI1
sI01
I1
stp715
Rp716
(dp717
g20
I2
sg28
Nsg29
Nsg30
Nsbsg31
I2
sg32
F3.0
sbs(g9
Vones
p718
tp719
g0
(g15
g2
Ntp720
Rp721
(dp722
g19
F0.5
sg20
I3
sg21
g0
(g22
g23
(dp723
NI3
stp724
Rp725
(dp726
g20
I3
sg28
Nsg29
Nsg30
Nsbsg31
I2
sg32
F4.0
sbs(g9
g440
tp727
g0
(g15
g2
Ntp728
Rp729
(dp730
g19
F0.5
sg20
I3
sg21
g0
(g22
g23
(dp731
NI3
stp732
Rp733
(dp734
g20
I3
sg28
Nsg29
Nsg30
Nsbsg31
I2
sg32
F4.0
sbs(g9
Vget
p735
tp736
g0
(g15
g2
Ntp737
Rp738
(dp739
g19
F0.5
sg20
I3
sg21
g0
(g22
g23
(dp740
NI2
sI01
I1
stp741
Rp742
(dp743
g20
I3
sg28
Nsg29
Nsg30
Nsbsg31
I2
sg32
F4.0
sbs(g9
g60
tp744
g0
(g15
g2
Ntp745
Rp746
(dp747
g19
F0.5
sg20
I3
sg21
g0
(g22
g23
(dp748
NI2
sI01
I1
stp749
Rp750
(dp751
g20
I3
sg28
Nsg29
Nsg30
Nsbsg31
I2
sg32
F4.0
sbs(g8
g301
tp752
g0
(g15
g2
Ntp753
Rp754
(dp755
g19
F0.5
sg20
I3
sg21
g0
(g22
g23
(dp756
NI3
stp757
Rp758
(dp759
g20
I3
sg28
Nsg29
Nsg30
Nsbsg31
I2
sg32
F4.0
sbs(g8
g310
tp760
g0
(g15
g2
Ntp761
Rp762
(dp763
g19
F0.5
sg20
I3
sg21
g0
(g22
g23
(dp764
NI3
stp765
Rp766
(dp767
g20
I3
sg28
Nsg29
Nsg30
Nsbsg31
I2
sg32
F4.0
sbs(g10
g431
tp768
g0
(g15
g2
Ntp769
Rp770
(dp771
g19
F0.5
sg20
I2
sg21
g0
(g22
g23
(dp772
NI2
stp773
Rp774
(dp775
g20
I2
sg28
Nsg29
Nsg30
Nsbsg31
I2
sg32
F3.0
sbs(g8
g87
tp776
g0
(g15
g2
Ntp777
Rp778
(dp779
g19
F0.5
sg20
I3
sg21
g0
(g22
g23
(dp780
NI3
stp781
Rp782
(dp783
g20
I3
sg28
Nsg29
Nsg30
Nsbsg31
I2
sg32
F4.0
sbs(g9
g13
tp784
g0
(g15
g2
Ntp785
Rp786
(dp787
g19
F0.5
sg20
I3
sg21
g0
(g22
g23
(dp788
NI3
stp789
Rp790
(dp791
g20
I3
sg28
Nsg29
Nsg30
Nsbsg31
I2
sg32
F4.0
sbs(g10
g33
tp792
g0
(g15
g2
Ntp793
Rp794
(dp795
g19
F0.5
sg20
I2
sg21
g0
(g22
g23
(dp796
NI1
sI01
I1
stp797
Rp798
(dp799
g20
I2
sg28
Nsg29
Nsg30
Nsbsg31
I2
sg32
F3.0
sbs(g8
Vplacing
p800
tp801
g0
(g15
g2
Ntp802
Rp803
(dp804
g19
F0.5
sg20
I3
sg21
g0
(g22
g23
(dp805
NI3
stp806
Rp807
(dp808
g20
I3
sg28
Nsg29
Nsg30
Nsbsg31
I2
sg32
F4.0
sbs(g9
g567
tp809
g0
(g15
g2
Ntp810
Rp811
(dp812
g19
F0.5
sg20
I3
sg21
g0
(g22
g23
(dp813
NI3
stp814
Rp815
(dp816
g20
I3
sg28
Nsg29
Nsg30
Nsbsg31
I2
sg32
F4.0
sbs(g10
g506
tp817
g0
(g15
g2
Ntp818
Rp819
(dp820
g19
F0.5
sg20
I2
sg21
g0
(g22
g23
(dp821
NI2
stp822
Rp823
(dp824
g20
I2
sg28
Nsg29
Nsg30
Nsbsg31
I2
sg32
F3.0
sbs(g9
Vnew
p825
tp826
g0
(g15
g2
Ntp827
Rp828
(dp829
g19
F0.5
sg20
I3
sg21
g0
(g22
g23
(dp830
NI2
sI01
I1
stp831
Rp832
(dp833
g20
I3
sg28
Nsg29
Nsg30
Nsbsg31
I2
sg32
F4.0
sbs(g10
g567
tp834
g0
(g15
g2
Ntp835
Rp836
(dp837
g19
F0.5
sg20
I2
sg21
g0
(g22
g23
(dp838
NI1
sI01
I1
stp839
Rp840
(dp841
g20
I2
sg28
Nsg29
Nsg30
Nsbsg31
I2
sg32
F3.0
sbs(g10
g634
tp842
g0
(g15
g2
Ntp843
Rp844
(dp845
g19
F0.5
sg20
I2
sg21
g0
(g22
g23
(dp846
NI2
stp847
Rp848
(dp849
g20
I2
sg28
Nsg29
Nsg30
Nsbsg31
I2
sg32
F3.0
sbs(g8
g379
tp850
g0
(g15
g2
Ntp851
Rp852
(dp853
g19
F0.5
sg20
I3
sg21
g0
(g22
g23
(dp854
NI2
sI01
I1
stp855
Rp856
(dp857
g20
I3
sg28
Nsg29
Nsg30
Nsbsg31
I2
sg32
F4.0
sbs(g9
g149
tp858
g0
(g15
g2
Ntp859
Rp860
(dp861
g19
F0.5
sg20
I3
sg21
g0
(g22
g23
(dp862
NI3
stp863
Rp864
(dp865
g20
I3
sg28
Nsg29
Nsg30
Nsbsg31
I2
sg32
F4.0
sbs(g9
Vjoining
p866
tp867
g0
(g15
g2
Ntp868
Rp869
(dp870
g19
F0.5
sg20
I3
sg21
g0
(g22
g23
(dp871
NI3
stp872
Rp873
(dp874
g20
I3
sg28
Nsg29
Nsg30
Nsbsg31
I2
sg32
F4.0
sbs(g9
g800
tp875
g0
(g15
g2
Ntp876
Rp877
(dp878
g19
F0.5
sg20
I3
sg21
g0
(g22
g23
(dp879
NI2
sI01
I1
stp880
Rp881
(dp882
g20
I3
sg28
Nsg29
Nsg30
Nsbsg31
I2
sg32
F4.0
sbs(g10
g69
tp883
g0
(g15
g2
Ntp884
Rp885
(dp886
g19
F0.5
sg20
I2
sg21
g0
(g22
g23
(dp887
NI2
stp888
Rp889
(dp890
g20
I2
sg28
Nsg29
Nsg30
Nsbsg31
I2
sg32
F3.0
sbs(g10
g440
tp891
g0
(g15
g2
Ntp892
Rp893
(dp894
g19
F0.5
sg20
I2
sg21
g0
(g22
g23
(dp895
NI1
sI01
I1
stp896
Rp897
(dp898
g20
I2
sg28
Nsg29
Nsg30
Nsbsg31
I2
sg32
F3.0
sbs(g10
Vgift
p899
tp900
g0
(g15
g2
Ntp901
Rp902
(dp903
g19
F0.5
sg20
I2
sg21
g0
(g22
g23
(dp904
NI2
stp905
Rp906
(dp907
g20
I2
sg28
Nsg29
Nsg30
Nsbsg31
I2
sg32
F3.0
sbs(g10
g149
tp908
g0
(g15
g2
Ntp909
Rp910
(dp911
g19
F0.5
sg20
I2
sg21
g0
(g22
g23
(dp912
NI2
stp913
Rp914
(dp915
g20
I2
sg28
Nsg29
Nsg30
Nsbsg31
I2
sg32
F3.0
sbs(g10
g685
tp916
g0
(g15
g2
Ntp917
Rp918
(dp919
g19
F0.5
sg20
I2
sg21
g0
(g22
g23
(dp920
NI2
stp921
Rp922
(dp923
g20
I2
sg28
Nsg29
Nsg30
Nsbsg31
I2
sg32
F3.0
sbs(g8
g248
tp924
g0
(g15
g2
Ntp925
Rp926
(dp927
g19
F0.5
sg20
I3
sg21
g0
(g22
g23
(dp928
NI2
sI01
I1
stp929
Rp930
(dp931
g20
I3
sg28
Nsg29
Nsg30
Nsbsg31
I2
sg32
F4.0
sbs(g10
g239
tp932
g0
(g15
g2
Ntp933
Rp934
(dp935
g19
F0.5
sg20
I2
sg21
g0
(g22
g23
(dp936
NI2
stp937
Rp938
(dp939
g20
I2
sg28
Nsg29
Nsg30
Nsbsg31
I2
sg32
F3.0
sbs(g10
Vused
p940
tp941
g0
(g15
g2
Ntp942
Rp943
(dp944
g19
F0.5
sg20
I2
sg21
g0
(g22
g23
(dp945
NI2
stp946
Rp947
(dp948
g20
I2
sg28
Nsg29
Nsg30
Nsbsg31
I2
sg32
F3.0
sbs(g8
g643
tp949
g0
(g15
g2
Ntp950
Rp951
(dp952
g19
F0.5
sg20
I3
sg21
g0
(g22
g23
(dp953
NI2
sI01
I1
stp954
Rp955
(dp956
g20
I3
sg28
Nsg29
Nsg30
Nsbsg31
I2
sg32
F4.0
sbs(g9
g676
tp957
g0
(g15
g2
Ntp958
Rp959
(dp960
g19
F0.5
sg20
I3
sg21
g0
(g22
g23
(dp961
NI2
sI01
I1
stp962
Rp963
(dp964
g20
I3
sg28
Nsg29
Nsg30
Nsbsg31
I2
sg32
F4.0
sbs(g10
g800
tp965
g0
(g15
g2
Ntp966
Rp967
(dp968
g19
F0.5
sg20
I2
sg21
g0
(g22
g23
(dp969
NI2
stp970
Rp971
(dp972
g20
I2
sg28
Nsg29
Nsg30
Nsbsg31
I2
sg32
F3.0
sbs(g10
Vbest
p973
tp974
g0
(g15
g2
Ntp975
Rp976
(dp977
g19
F0.5
sg20
I2
sg21
g0
(g22
g23
(dp978
NI2
stp979
Rp980
(dp981
g20
I2
sg28
Nsg29
Nsg30
Nsbsg31
I2
sg32
F3.0
sbs(g9
g194
tp982
g0
(g15
g2
Ntp983
Rp984
(dp985
g19
F0.5
sg20
I3
sg21
g0
(g22
g23
(dp986
NI2
sI01
I1
stp987
Rp988
(dp989
g20
I3
sg28
Nsg29
Nsg30
Nsbsg31
I2
sg32
F4.0
sbs(g8
g42
tp990
g0
(g15
g2
Ntp991
Rp992
(dp993
g19
F0.5
sg20
I3
sg21
g0
(g22
g23
(dp994
NI3
stp995
Rp996
(dp997
g20
I3
sg28
Nsg29
Nsg30
Nsbsg31
I2
sg32
F4.0
sbs(g8
g609
tp998
g0
(g15
g2
Ntp999
Rp1000
(dp1001
g19
F0.5
sg20
I3
sg21
g0
(g22
g23
(dp1002
NI3
stp1003
Rp1004
(dp1005
g20
I3
sg28
Nsg29
Nsg30
Nsbsg31
I2
sg32
F4.0
sbs(g10
g532
tp1006
g0
(g15
g2
Ntp1007
Rp1008
(dp1009
g19
F0.5
sg20
I2
sg21
g0
(g22
g23
(dp1010
NI1
sI01
I1
stp1011
Rp1012
(dp1013
g20
I2
sg28
Nsg29
Nsg30
Nsbsg31
I2
sg32
F3.0
sbs(g8
g176
tp1014
g0
(g15
g2
Ntp1015
Rp1016
(dp1017
g19
F0.5
sg20
I3
sg21
g0
(g22
g23
(dp1018
NI2
sI01
I1
stp1019
Rp1020
(dp1021
g20
I3
sg28
Nsg29
Nsg30
Nsbsg31
I2
sg32
F4.0
sbs(g8
Vweek
p1022
tp1023
g0
(g15
g2
Ntp1024
Rp1025
(dp1026
g19
F0.5
sg20
I3
sg21
g0
(g22
g23
(dp1027
NI2
sI01
I1
stp1028
Rp1029
(dp1030
g20
I3
sg28
Nsg29
Nsg30
Nsbsg31
I2
sg32
F4.0
sbs(g10
g167
tp1031
g0
(g15
g2
Ntp1032
Rp1033
(dp1034
g19
F0.5
sg20
I2
sg21
g0
(g22
g23
(dp1035
NI2
stp1036
Rp1037
(dp1038
g20
I2
sg28
Nsg29
Nsg30
Nsbsg31
I2
sg32
F3.0
sbs(g9
g104
tp1039
g0
(g15
g2
Ntp1040
Rp1041
(dp1042
g19
F0.5
sg20
I3
sg21
g0
(g22
g23
(dp1043
NI3
stp1044
Rp1045
(dp1046
g20
I3
sg28
Nsg29
Nsg30
Nsbsg31
I2
sg32
F4.0
sbs(g8
g523
tp1047
g0
(g15
g2
Ntp1048
Rp1049
(dp1050
g19
F0.5
sg20
I3
sg21
g0
(g22
g23
(dp1051
NI2
sI01
I1
stp1052
Rp1053
(dp1054
g20
I3
sg28
Nsg29
Nsg30
Nsbsg31
I2
sg32
F4.0
sbs(g8
Vbamhmvsignings
p1055
tp1056
g0
(g15
g2
Ntp1057
Rp1058
(dp1059
g19
F0.5
sg20
I3
sg21
g0
(g22
g23
(dp1060
NI2
sI01
I1
stp1061
Rp1062
(dp1063
g20
I3
sg28
Nsg29
Nsg30
Nsbsg31
I2
sg32
F4.0
sbs(g8
g69
tp1064
g0
(g15
g2
Ntp1065
Rp1066
(dp1067
g19
F0.5
sg20
I3
sg21
g0
(g22
g23
(dp1068
NI2
sI01
I1
stp1069
Rp1070
(dp1071
g20
I3
sg28
Nsg29
Nsg30
Nsbsg31
I2
sg32
F4.0
sbs(g10
g87
tp1072
g0
(g15
g2
Ntp1073
Rp1074
(dp1075
g19
F0.5
sg20
I2
sg21
g0
(g22
g23
(dp1076
NI2
stp1077
Rp1078
(dp1079
g20
I2
sg28
Nsg29
Nsg30
Nsbsg31
I2
sg32
F3.0
sbs(g9
g122
tp1080
g0
(g15
g2
Ntp1081
Rp1082
(dp1083
g19
F0.5
sg20
I3
sg21
g0
(g22
g23
(dp1084
NI3
stp1085
Rp1086
(dp1087
g20
I3
sg28
Nsg29
Nsg30
Nsbsg31
I2
sg32
F4.0
sbs(g8
Vsignings
p1088
tp1089
g0
(g15
g2
Ntp1090
Rp1091
(dp1092
g19
F0.5
sg20
I3
sg21
g0
(g22
g23
(dp1093
NI2
sI01
I1
stp1094
Rp1095
(dp1096
g20
I3
sg28
Nsg29
Nsg30
Nsbsg31
I2
sg32
F4.0
sbs(g8
g431
tp1097
g0
(g15
g2
Ntp1098
Rp1099
(dp1100
g19
F0.5
sg20
I3
sg21
g0
(g22
g23
(dp1101
NI2
sI01
I1
stp1102
Rp1103
(dp1104
g20
I3
sg28
Nsg29
Nsg30
Nsbsg31
I2
sg32
F4.0
sbs(g8
g33
tp1105
g0
(g15
g2
Ntp1106
Rp1107
(dp1108
g19
F0.5
sg20
I3
sg21
g0
(g22
g23
(dp1109
NI3
stp1110
Rp1111
(dp1112
g20
I3
sg28
Nsg29
Nsg30
Nsbsg31
I2
sg32
F4.0
sbs(g8
g549
tp1113
g0
(g15
g2
Ntp1114
Rp1115
(dp1116
g19
F0.5
sg20
I3
sg21
g0
(g22
g23
(dp1117
NI2
sI01
I1
stp1118
Rp1119
(dp1120
g20
I3
sg28
Nsg29
Nsg30
Nsbsg31
I2
sg32
F4.0
sbs(g10
g643
tp1121
g0
(g15
g2
Ntp1122
Rp1123
(dp1124
g19
F0.5
sg20
I2
sg21
g0
(g22
g23
(dp1125
NI2
stp1126
Rp1127
(dp1128
g20
I2
sg28
Nsg29
Nsg30
Nsbsg31
I2
sg32
F3.0
sbs(g9
g379
tp1129
g0
(g15
g2
Ntp1130
Rp1131
(dp1132
g19
F0.5
sg20
I3
sg21
g0
(g22
g23
(dp1133
NI3
stp1134
Rp1135
(dp1136
g20
I3
sg28
Nsg29
Nsg30
Nsbsg31
I2
sg32
F4.0
sbs(g9
g257
tp1137
g0
(g15
g2
Ntp1138
Rp1139
(dp1140
g19
F0.5
sg20
I3
sg21
g0
(g22
g23
(dp1141
NI2
sI01
I1
stp1142
Rp1143
(dp1144
g20
I3
sg28
Nsg29
Nsg30
Nsbsg31
I2
sg32
F4.0
sbs(g8
g866
tp1145
g0
(g15
g2
Ntp1146
Rp1147
(dp1148
g19
F0.5
sg20
I3
sg21
g0
(g22
g23
(dp1149
NI3
stp1150
Rp1151
(dp1152
g20
I3
sg28
Nsg29
Nsg30
Nsbsg31
I2
sg32
F4.0
sbs(g9
g388
tp1153
g0
(g15
g2
Ntp1154
Rp1155
(dp1156
g19
F0.5
sg20
I3
sg21
g0
(g22
g23
(dp1157
NI3
stp1158
Rp1159
(dp1160
g20
I3
sg28
Nsg29
Nsg30
Nsbsg31
I2
sg32
F4.0
sbs(g8
g973
tp1161
g0
(g15
g2
Ntp1162
Rp1163
(dp1164
g19
F0.5
sg20
I3
sg21
g0
(g22
g23
(dp1165
NI2
sI01
I1
stp1166
Rp1167
(dp1168
g20
I3
sg28
Nsg29
Nsg30
Nsbsg31
I2
sg32
F4.0
sbs(g10
g362
tp1169
g0
(g15
g2
Ntp1170
Rp1171
(dp1172
g19
F0.5
sg20
I2
sg21
g0
(g22
g23
(dp1173
NI2
stp1174
Rp1175
(dp1176
g20
I2
sg28
Nsg29
Nsg30
Nsbsg31
I2
sg32
F3.0
sbs(g10
g718
tp1177
g0
(g15
g2
Ntp1178
Rp1179
(dp1180
g19
F0.5
sg20
I2
sg21
g0
(g22
g23
(dp1181
NI2
stp1182
Rp1183
(dp1184
g20
I2
sg28
Nsg29
Nsg30
Nsbsg31
I2
sg32
F3.0
sbs(g8
Vburleighprizewinner
p1185
tp1186
g0
(g15
g2
Ntp1187
Rp1188
(dp1189
g19
F0.5
sg20
I3
sg21
g0
(g22
g23
(dp1190
NI3
stp1191
Rp1192
(dp1193
g20
I3
sg28
Nsg29
Nsg30
Nsbsg31
I2
sg32
F4.0
sbs(g10
g592
tp1194
g0
(g15
g2
Ntp1195
Rp1196
(dp1197
g19
F0.5
sg20
I2
sg21
g0
(g22
g23
(dp1198
NI1
sI01
I1
stp1199
Rp1200
(dp1201
g20
I2
sg28
Nsg29
Nsg30
Nsbsg31
I2
sg32
F3.0
sbs(g10
g345
tp1202
g0
(g15
g2
Ntp1203
Rp1204
(dp1205
g19
F0.5
sg20
I2
sg21
g0
(g22
g23
(dp1206
NI2
stp1207
Rp1208
(dp1209
g20
I2
sg28
Nsg29
Nsg30
Nsbsg31
I2
sg32
F3.0
sbs(g9
g414
tp1210
g0
(g15
g2
Ntp1211
Rp1212
(dp1213
g19
F0.5
sg20
I3
sg21
g0
(g22
g23
(dp1214
NI3
stp1215
Rp1216
(dp1217
g20
I3
sg28
Nsg29
Nsg30
Nsbsg31
I2
sg32
F4.0
sbs(g9
g973
tp1218
g0
(g15
g2
Ntp1219
Rp1220
(dp1221
g19
F0.5
sg20
I3
sg21
g0
(g22
g23
(dp1222
NI3
stp1223
Rp1224
(dp1225
g20
I3
sg28
Nsg29
Nsg30
Nsbsg31
I2
sg32
F4.0
sbs(g9
g301
tp1226
g0
(g15
g2
Ntp1227
Rp1228
(dp1229
g19
F0.5
sg20
I3
sg21
g0
(g22
g23
(dp1230
NI2
sI01
I1
stp1231
Rp1232
(dp1233
g20
I3
sg28
Nsg29
Nsg30
Nsbsg31
I2
sg32
F4.0
sbs(g9
g549
tp1234
g0
(g15
g2
Ntp1235
Rp1236
(dp1237
g19
F0.5
sg20
I3
sg21
g0
(g22
g23
(dp1238
NI3
stp1239
Rp1240
(dp1241
g20
I3
sg28
Nsg29
Nsg30
Nsbsg31
I2
sg32
F4.0
sbs(g10
g1022
tp1242
g0
(g15
g2
Ntp1243
Rp1244
(dp1245
g19
F0.5
sg20
I2
sg21
g0
(g22
g23
(dp1246
NI2
stp1247
Rp1248
(dp1249
g20
I2
sg28
Nsg29
Nsg30
Nsbsg31
I2
sg32
F3.0
sbs(g8
g13
tp1250
g0
(g15
g2
Ntp1251
Rp1252
(dp1253
g19
F0.5
sg20
I3
sg21
g0
(g22
g23
(dp1254
NI3
stp1255
Rp1256
(dp1257
g20
I3
sg28
Nsg29
Nsg30
Nsbsg31
I2
sg32
F4.0
sbs(g8
g239
tp1258
g0
(g15
g2
Ntp1259
Rp1260
(dp1261
g19
F0.5
sg20
I3
sg21
g0
(g22
g23
(dp1262
NI2
sI01
I1
stp1263
Rp1264
(dp1265
g20
I3
sg28
Nsg29
Nsg30
Nsbsg31
I2
sg32
F4.0
sbs(g9
g283
tp1266
g0
(g15
g2
Ntp1267
Rp1268
(dp1269
g19
F0.5
sg20
I3
sg21
g0
(g22
g23
(dp1270
NI3
stp1271
Rp1272
(dp1273
g20
I3
sg28
Nsg29
Nsg30
Nsbsg31
I2
sg32
F4.0
sbs(g9
g292
tp1274
g0
(g15
g2
Ntp1275
Rp1276
(dp1277
g19
F0.5
sg20
I3
sg21
g0
(g22
g23
(dp1278
NI1
sI01
I2
stp1279
Rp1280
(dp1281
g20
I3
sg28
Nsg29
Nsg30
Nsbsg31
I2
sg32
F4.0
sbs(g10
g51
tp1282
g0
(g15
g2
Ntp1283
Rp1284
(dp1285
g19
F0.5
sg20
I2
sg21
g0
(g22
g23
(dp1286
NI2
stp1287
Rp1288
(dp1289
g20
I2
sg28
Nsg29
Nsg30
Nsbsg31
I2
sg32
F3.0
sbs(g8
g899
tp1290
g0
(g15
g2
Ntp1291
Rp1292
(dp1293
g19
F0.5
sg20
I3
sg21
g0
(g22
g23
(dp1294
NI3
stp1295
Rp1296
(dp1297
g20
I3
sg28
Nsg29
Nsg30
Nsbsg31
I2
sg32
F4.0
sbs(g8
g940
tp1298
g0
(g15
g2
Ntp1299
Rp1300
(dp1301
g19
F0.5
sg20
I3
sg21
g0
(g22
g23
(dp1302
NI3
stp1303
Rp1304
(dp1305
g20
I3
sg28
Nsg29
Nsg30
Nsbsg31
I2
sg32
F4.0
sbs(g10
g248
tp1306
g0
(g15
g2
Ntp1307
Rp1308
(dp1309
g19
F0.5
sg20
I2
sg21
g0
(g22
g23
(dp1310
NI2
stp1311
Rp1312
(dp1313
g20
I2
sg28
Nsg29
Nsg30
Nsbsg31
I2
sg32
F3.0
sbs(g8
g388
tp1314
g0
(g15
g2
Ntp1315
Rp1316
(dp1317
g19
F0.5
sg20
I3
sg21
g0
(g22
g23
(dp1318
NI2
sI01
I1
stp1319
Rp1320
(dp1321
g20
I3
sg28
Nsg29
Nsg30
Nsbsg31
I2
sg32
F4.0
sbs(g10
g1185
tp1322
g0
(g15
g2
Ntp1323
Rp1324
(dp1325
g19
F0.5
sg20
I2
sg21
g0
(g22
g23
(dp1326
NI2
stp1327
Rp1328
(dp1329
g20
I2
sg28
Nsg29
Nsg30
Nsbsg31
I2
sg32
F3.0
sbs(g9
g221
tp1330
g0
(g15
g2
Ntp1331
Rp1332
(dp1333
g19
F0.5
sg20
I3
sg21
g0
(g22
g23
(dp1334
NI2
sI01
I1
stp1335
Rp1336
(dp1337
g20
I3
sg28
Nsg29
Nsg30
Nsbsg31
I2
sg32
F4.0
sbs(g8
g212
tp1338
g0
(g15
g2
Ntp1339
Rp1340
(dp1341
g19
F0.5
sg20
I3
sg21
g0
(g22
g23
(dp1342
NI3
stp1343
Rp1344
(dp1345
g20
I3
sg28
Nsg29
Nsg30
Nsbsg31
I2
sg32
F4.0
sbs(g9
Vweek
p1346
tp1347
g0
(g15
g2
Ntp1348
Rp1349
(dp1350
g19
F0.5
sg20
I3
sg21
g0
(g22
g23
(dp1351
NI2
sI01
I1
stp1352
Rp1353
(dp1354
g20
I3
sg28
Nsg29
Nsg30
Nsbsg31
I2
sg32
F4.0
sbs(g8
g685
tp1355
g0
(g15
g2
Ntp1356
Rp1357
(dp1358
g19
F0.5
sg20
I3
sg21
g0
(g22
g23
(dp1359
NI3
stp1360
Rp1361
(dp1362
g20
I3
sg28
Nsg29
Nsg30
Nsbsg31
I2
sg32
F4.0
sbs(g8
g230
tp1363
g0
(g15
g2
Ntp1364
Rp1365
(dp1366
g19
F0.5
sg20
I3
sg21
g0
(g22
g23
(dp1367
NI2
sI01
I1
stp1368
Rp1369
(dp1370
g20
I3
sg28
Nsg29
Nsg30
Nsbsg31
I2
sg32
F4.0
sbs(g8
g336
tp1371
g0
(g15
g2
Ntp1372
Rp1373
(dp1374
g19
F0.5
sg20
I3
sg21
g0
(g22
g23
(dp1375
NI2
sI01
I1
stp1376
Rp1377
(dp1378
g20
I3
sg28
Nsg29
Nsg30
Nsbsg31
I2
sg32
F4.0
sbs(g10
g140
tp1379
g0
(g15
g2
Ntp1380
Rp1381
(dp1382
g19
F0.5
sg20
I2
sg21
g0
(g22
g23
(dp1383
NI2
stp1384
Rp1385
(dp1386
g20
I2
sg28
Nsg29
Nsg30
Nsbsg31
I2
sg32
F3.0
sbs(g8
g634
tp1387
g0
(g15
g2
Ntp1388
Rp1389
(dp1390
g19
F0.5
sg20
I3
sg21
g0
(g22
g23
(dp1391
NI3
stp1392
Rp1393
(dp1394
g20
I3
sg28
Nsg29
Nsg30
Nsbsg31
I2
sg32
F4.0
sbs(g10
g414
tp1395
g0
(g15
g2
Ntp1396
Rp1397
(dp1398
g19
F0.5
sg20
I2
sg21
g0
(g22
g23
(dp1399
NI2
stp1400
Rp1401
(dp1402
g20
I2
sg28
Nsg29
Nsg30
Nsbsg31
I2
sg32
F3.0
sbs(g8
g592
tp1403
g0
(g15
g2
Ntp1404
Rp1405
(dp1406
g19
F0.5
sg20
I3
sg21
g0
(g22
g23
(dp1407
NI3
stp1408
Rp1409
(dp1410
g20
I3
sg28
Nsg29
Nsg30
Nsbsg31
I2
sg32
F4.0
sbs(g8
g167
tp1411
g0
(g15
g2
Ntp1412
Rp1413
(dp1414
g19
F0.5
sg20
I3
sg21
g0
(g22
g23
(dp1415
NI2
sI01
I1
stp1416
Rp1417
(dp1418
g20
I3
sg28
Nsg29
Nsg30
Nsbsg31
I2
sg32
F4.0
sbs(g9
g336
tp1419
g0
(g15
g2
Ntp1420
Rp1421
(dp1422
g19
F0.5
sg20
I3
sg21
g0
(g22
g23
(dp1423
NI3
stp1424
Rp1425
(dp1426
g20
I3
sg28
Nsg29
Nsg30
Nsbsg31
I2
sg32
F4.0
sbs(g9
g1185
tp1427
g0
(g15
g2
Ntp1428
Rp1429
(dp1430
g19
F0.5
sg20
I3
sg21
g0
(g22
g23
(dp1431
NI2
sI01
I1
stp1432
Rp1433
(dp1434
g20
I3
sg28
Nsg29
Nsg30
Nsbsg31
I2
sg32
F4.0
sbs(g10
g310
tp1435
g0
(g15
g2
Ntp1436
Rp1437
(dp1438
g19
F0.5
sg20
I2
sg21
g0
(g22
g23
(dp1439
NI2
stp1440
Rp1441
(dp1442
g20
I2
sg28
Nsg29
Nsg30
Nsbsg31
I2
sg32
F3.0
sbs(g10
g221
tp1443
g0
(g15
g2
Ntp1444
Rp1445
(dp1446
g19
F0.5
sg20
I2
sg21
g0
(g22
g23
(dp1447
NI2
stp1448
Rp1449
(dp1450
g20
I2
sg28
Nsg29
Nsg30
Nsbsg31
I2
sg32
F3.0
sbs(g9
g940
tp1451
g0
(g15
g2
Ntp1452
Rp1453
(dp1454
g19
F0.5
sg20
I3
sg21
g0
(g22
g23
(dp1455
NI2
sI01
I1
stp1456
Rp1457
(dp1458
g20
I3
sg28
Nsg29
Nsg30
Nsbsg31
I2
sg32
F4.0
sbs(g10
Vsee
p1459
tp1460
g0
(g15
g2
Ntp1461
Rp1462
(dp1463
g19
F0.5
sg20
I2
sg21
g0
(g22
g23
(dp1464
NI1
sI01
I1
stp1465
Rp1466
(dp1467
g20
I2
sg28
Nsg29
Nsg30
Nsbsg31
I2
sg32
F3.0
sbs(g9
g51
tp1468
g0
(g15
g2
Ntp1469
Rp1470
(dp1471
g19
F0.5
sg20
I3
sg21
g0
(g22
g23
(dp1472
NI3
stp1473
Rp1474
(dp1475
g20
I3
sg28
Nsg29
Nsg30
Nsbsg31
I2
sg32
F4.0
sbs(g8
g283
tp1476
g0
(g15
g2
Ntp1477
Rp1478
(dp1479
g19
F0.5
sg20
I3
sg21
g0
(g22
g23
(dp1480
NI2
sI01
I1
stp1481
Rp1482
(dp1483
g20
I3
sg28
Nsg29
Nsg30
Nsbsg31
I2
sg32
F4.0
sbs(g9
Vpics
p1484
tp1485
g0
(g15
g2
Ntp1486
Rp1487
(dp1488
g19
F0.5
sg20
I3
sg21
g0
(g22
g23
(dp1489
NI3
stp1490
Rp1491
(dp1492
g20
I3
sg28
Nsg29
Nsg30
Nsbsg31
I2
sg32
F4.0
sbs(g10
g676
tp1493
g0
(g15
g2
Ntp1494
Rp1495
(dp1496
g19
F0.5
sg20
I2
sg21
g0
(g22
g23
(dp1497
NI2
stp1498
Rp1499
(dp1500
g20
I2
sg28
Nsg29
Nsg30
Nsbsg31
I2
sg32
F3.0
sbs(g9
g899
tp1501
g0
(g15
g2
Ntp1502
Rp1503
(dp1504
g19
F0.5
sg20
I3
sg21
g0
(g22
g23
(dp1505
NI2
sI01
I1
stp1506
Rp1507
(dp1508
g20
I3
sg28
Nsg29
Nsg30
Nsbsg31
I2
sg32
F4.0
sbs(g10
g1088
tp1509
g0
(g15
g2
Ntp1510
Rp1511
(dp1512
g19
F0.5
sg20
I2
sg21
g0
(g22
g23
(dp1513
NI2
stp1514
Rp1515
(dp1516
g20
I2
sg28
Nsg29
Nsg30
Nsbsg31
I2
sg32
F3.0
sbs(g10
g1484
tp1517
g0
(g15
g2
Ntp1518
Rp1519
(dp1520
g19
F0.5
sg20
I2
sg21
g0
(g22
g23
(dp1521
NI1
sI01
I1
stp1522
Rp1523
(dp1524
g20
I2
sg28
Nsg29
Nsg30
Nsbsg31
I2
sg32
F3.0
sbs(g10
g203
tp1525
g0
(g15
g2
Ntp1526
Rp1527
(dp1528
g19
F0.5
sg20
I2
sg21
g0
(g22
g23
(dp1529
NI2
stp1530
Rp1531
(dp1532
g20
I2
sg28
Nsg29
Nsg30
Nsbsg31
I2
sg32
F3.0
sbs(g8
g558
tp1533
g0
(g15
g2
Ntp1534
Rp1535
(dp1536
g19
F0.5
sg20
I3
sg21
g0
(g22
g23
(dp1537
NI3
stp1538
Rp1539
(dp1540
g20
I3
sg28
Nsg29
Nsg30
Nsbsg31
I2
sg32
F4.0
sbs(g8
g718
tp1541
g0
(g15
g2
Ntp1542
Rp1543
(dp1544
g19
F0.5
sg20
I3
sg21
g0
(g22
g23
(dp1545
NI2
sI01
I1
stp1546
Rp1547
(dp1548
g20
I3
sg28
Nsg29
Nsg30
Nsbsg31
I2
sg32
F4.0
sbs(g10
g866
tp1549
g0
(g15
g2
Ntp1550
Rp1551
(dp1552
g19
F0.5
sg20
I2
sg21
g0
(g22
g23
(dp1553
NI1
sI01
I1
stp1554
Rp1555
(dp1556
g20
I2
sg28
Nsg29
Nsg30
Nsbsg31
I2
sg32
F3.0
sbs(g10
g609
tp1557
g0
(g15
g2
Ntp1558
Rp1559
(dp1560
g19
F0.5
sg20
I2
sg21
g0
(g22
g23
(dp1561
NI2
stp1562
Rp1563
(dp1564
g20
I2
sg28
Nsg29
Nsg30
Nsbsg31
I2
sg32
F3.0
sbs(g8
g345
tp1565
g0
(g15
g2
Ntp1566
Rp1567
(dp1568
g19
F0.5
sg20
I3
sg21
g0
(g22
g23
(dp1569
NI3
stp1570
Rp1571
(dp1572
g20
I3
sg28
Nsg29
Nsg30
Nsbsg31
I2
sg32
F4.0
sbs(g10
g176
tp1573
g0
(g15
g2
Ntp1574
Rp1575
(dp1576
g19
F0.5
sg20
I2
sg21
g0
(g22
g23
(dp1577
NI2
stp1578
Rp1579
(dp1580
g20
I2
sg28
Nsg29
Nsg30
Nsbsg31
I2
sg32
F3.0
sbs(g9
g558
tp1581
g0
(g15
g2
Ntp1582
Rp1583
(dp1584
g19
F0.5
sg20
I3
sg21
g0
(g22
g23
(dp1585
NI2
sI01
I1
stp1586
Rp1587
(dp1588
g20
I3
sg28
Nsg29
Nsg30
Nsbsg31
I2
sg32
F4.0
sbs(g9
g1088
tp1589
g0
(g15
g2
Ntp1590
Rp1591
(dp1592
g19
F0.5
sg20
I3
sg21
g0
(g22
g23
(dp1593
NI3
stp1594
Rp1595
(dp1596
g20
I3
sg28
Nsg29
Nsg30
Nsbsg31
I2
sg32
F4.0
sbs(g8
g257
tp1597
g0
(g15
g2
Ntp1598
Rp1599
(dp1600
g19
F0.5
sg20
I3
sg21
g0
(g22
g23
(dp1601
NI3
stp1602
Rp1603
(dp1604
g20
I3
sg28
Nsg29
Nsg30
Nsbsg31
I2
sg32
F4.0
sbssS'_label_probdist'
p1605
g0
(g15
g2
Ntp1606
Rp1607
(dp1608
g19
F0.5
sg20
I8
sg21
g0
(g22
g23
(dp1609
g10
I2
sg9
I3
sg8
I3
stp1610
Rp1611
(dp1612
g20
I8
sg28
Nsg29
(lp1613
(g8
I3
tp1614
a(g9
I3
tp1615
a(g10
I2
tp1616
asg30
Nsbsg31
I3
sg32
F9.5
sbsb.