(lp0
ccopy_reg
_reconstructor
p1
(c__main__
MyTweet
p2
c__builtin__
dict
p3
(dp4
tp5
Rp6
(dp7
S'name'
p8
Vhmv
p9
sS'text'
p10
VBefore the @charliesimo events, make sure you download #Haunted, his incredible new single here: http://t.co/uFQpy8IDcW @hmvdigital
p11
sS'id'
p12
L488978820771635200L
sS'date'
p13
V2 hours ago
p14
sS'ava'
p15
Vhttps://pbs.twimg.com/profile_images/472314907879170048/vBn9EfeR_normal.jpeg
p16
sS'screen_name'
p17
Vhmvtweets
p18
sbag1
(g2
g3
(dp19
tp20
Rp21
(dp22
g8
Vhmv
p23
sg10
V-@charliesimo will be performing &amp; signing #LongRoadHome at 4 of our stores! Check http://t.co/EixbJGjvSY for details http://t.co/P9JkA0WrYT
p24
sg12
L488978003360497664L
sg13
V2 hours ago
p25
sg15
Vhttps://pbs.twimg.com/profile_images/472314907879170048/vBn9EfeR_normal.jpeg
p26
sg17
Vhmvtweets
p27
sbag1
(g2
g3
(dp28
tp29
Rp30
(dp31
g8
Vhmv
p32
sg10
VIn case you missed it yesterday, #Hodor from #GameOfThrones is going on tour. It's called the #RaveOfThrones tour... http://t.co/o9td8Ra0Wc
p33
sg12
L488976432882647040L
sg13
V2 hours ago
p34
sg15
Vhttps://pbs.twimg.com/profile_images/472314907879170048/vBn9EfeR_normal.jpeg
p35
sg17
Vhmvtweets
p36
sbag1
(g2
g3
(dp37
tp38
Rp39
(dp40
g8
Vhmv
p41
sg10
VHappy Birthday to @ElyarFox! Here's a cheeky pic of him @hmvmanchester back in April #hmvlive http://t.co/VdfytHbU7A http://t.co/4B2RM8ZMEP
p42
sg12
L488974654745223168L
sg13
V2 hours ago
p43
sg15
Vhttps://pbs.twimg.com/profile_images/472314907879170048/vBn9EfeR_normal.jpeg
p44
sg17
Vhmvtweets
p45
sbag1
(g2
g3
(dp46
tp47
Rp48
(dp49
g8
Vhmv
p50
sg10
V#Muse and #IronMaiden left out as BBC Radio 2 launches vote to find greatest ever guitar riff: http://t.co/jxxcQKUR64
p51
sg12
L488973575563804672L
sg13
V2 hours ago
p52
sg15
Vhttps://pbs.twimg.com/profile_images/472314907879170048/vBn9EfeR_normal.jpeg
p53
sg17
Vhmvtweets
p54
sbag1
(g2
g3
(dp55
tp56
Rp57
(dp58
g8
Vhmv
p59
sg10
VThe first trailer for #DanielRadcliffe's new horror thriller #Horns has been revealed and it looks pretty scary: http://t.co/eLECp69Lt6
p60
sg12
L488948613255815168L
sg13
V3 hours ago
p61
sg15
Vhttps://pbs.twimg.com/profile_images/472314907879170048/vBn9EfeR_normal.jpeg
p62
sg17
Vhmvtweets
p63
sbag1
(g2
g3
(dp64
tp65
Rp66
(dp67
g8
Vhmv
p68
sg10
V#Tupac musical #HollerIfYaHearMe to close after just one month on Broadway: http://t.co/53lgsswJzt
p69
sg12
L488945262296322048L
sg13
V3 hours ago
p70
sg15
Vhttps://pbs.twimg.com/profile_images/472314907879170048/vBn9EfeR_normal.jpeg
p71
sg17
Vhmvtweets
p72
sbag1
(g2
g3
(dp73
tp74
Rp75
(dp76
g8
Vhmv
p77
sg10
V#Blink182 have posted an update on progress on their new album: http://t.co/iESzUUiXce http://t.co/hAjC716DkI
p78
sg12
L488941610726854656L
sg13
V4 hours ago
p79
sg15
Vhttps://pbs.twimg.com/profile_images/472314907879170048/vBn9EfeR_normal.jpeg
p80
sg17
Vhmvtweets
p81
sbag1
(g2
g3
(dp82
tp83
Rp84
(dp85
g8
Vhmv
p86
sg10
VThis is the most-read story on our website today. Quite literally, #Babymetal: http://t.co/f1wuyx8n7C
p87
sg12
L488725166965288963L
sg13
V18 hours ago
p88
sg15
Vhttps://pbs.twimg.com/profile_images/472314907879170048/vBn9EfeR_normal.jpeg
p89
sg17
Vhmvtweets
p90
sbag1
(g2
g3
(dp91
tp92
Rp93
(dp94
g8
Vhmv
p95
sg10
V@marmite @SLOWCLUBHQ @SLOWCLUBREBECCA Phew. Glad you kept your label on and maintained your modesty!
p96
sg12
L488718295428640769L
sg13
V19 hours ago
p97
sg15
Vhttps://pbs.twimg.com/profile_images/472314907879170048/vBn9EfeR_normal.jpeg
p98
sg17
Vhmvtweets
p99
sbag1
(g2
g3
(dp100
tp101
Rp102
(dp103
g8
Vhmv
p104
sg10
V#GameOfThrones #Hodor is heading out on a DJ tour of Australia. It's called the #RaveOfThrones tour: http://t.co/wOfVyZgVlK
p105
sg12
L488708997734989824L
sg13
V19 hours ago
p106
sg15
Vhttps://pbs.twimg.com/profile_images/472314907879170048/vBn9EfeR_normal.jpeg
p107
sg17
Vhmvtweets
p108
sbag1
(g2
g3
(dp109
tp110
Rp111
(dp112
g8
Vhmv
p113
sg10
V"We left a lot of stuff to the last minute..." - we get @SLOWCLUBHQ to assess their own back catalogue  http://t.co/RNtqCb371U
p114
sg12
L488696981112766464L
sg13
V20 hours ago
p115
sg15
Vhttps://pbs.twimg.com/profile_images/472314907879170048/vBn9EfeR_normal.jpeg
p116
sg17
Vhmvtweets
p117
sbag1
(g2
g3
(dp118
tp119
Rp120
(dp121
g8
Vhmv
p122
sg10
V#GameOfThrones' star Rose Leslie has signed up to star alongside #VinDiesel in new action flick #TheLastWitchHunter: http://t.co/RSzIVeXnXe
p123
sg12
L488694222422167552L
sg13
V20 hours ago
p124
sg15
Vhttps://pbs.twimg.com/profile_images/472314907879170048/vBn9EfeR_normal.jpeg
p125
sg17
Vhmvtweets
p126
sbag1
(g2
g3
(dp127
tp128
Rp129
(dp130
g8
Vhmv
p131
sg10
VMarmite? Running naked down Oxford Street? We got @SLOWCLUBHQ'S @SLOWCLUBREBECCA to answer your questions... http://t.co/QgDGO0xGdt
p132
sg12
L488691994630565888L
sg13
V20 hours ago
p133
sg15
Vhttps://pbs.twimg.com/profile_images/472314907879170048/vBn9EfeR_normal.jpeg
p134
sg17
Vhmvtweets
p135
sbag1
(g2
g3
(dp136
tp137
Rp138
(dp139
g8
Vhmv
p140
sg10
VCountry legend #DollyParton has said that she would like to "do a dance record" at some point: http://t.co/1juuuojlxe http://t.co/GLpLx276Hy
p141
sg12
L488684098391515136L
sg13
V21 hours ago
p142
sg15
Vhttps://pbs.twimg.com/profile_images/472314907879170048/vBn9EfeR_normal.jpeg
p143
sg17
Vhmvtweets
p144
sbag1
(g2
g3
(dp145
tp146
Rp147
(dp148
g8
Vhmv
p149
sg10
VEver wondered what @SLOWCLUBHQ listen to on their long drives from gigs? Bowie, Britney and one unlikely theme tune: http://t.co/h14fO5iNjJ
p150
sg12
L488675542020145153L
sg13
V21 hours ago
p151
sg15
Vhttps://pbs.twimg.com/profile_images/472314907879170048/vBn9EfeR_normal.jpeg
p152
sg17
Vhmvtweets
p153
sbag1
(g2
g3
(dp154
tp155
Rp156
(dp157
g8
Vhmv
p158
sg10
V#BombayBicycleClub have announced details of their largest UK show to date: http://t.co/8jtLi2bKMA http://t.co/bm6AhQkGZw
p159
sg12
L488670472717238274L
sg13
Va day ago
p160
sg15
Vhttps://pbs.twimg.com/profile_images/472314907879170048/vBn9EfeR_normal.jpeg
p161
sg17
Vhmvtweets
p162
sbag1
(g2
g3
(dp163
tp164
Rp165
(dp166
g8
Vhmv
p167
sg10
V"We\u2019ve got such different outlooks, but we always come together" - we chat to @SLOWCLUBHQ about #CompleteSurrender: http://t.co/5V1lWGX1w6
p168
sg12
L488668152105304064L
sg13
Va day ago
p169
sg15
Vhttps://pbs.twimg.com/profile_images/472314907879170048/vBn9EfeR_normal.jpeg
p170
sg17
Vhmvtweets
p171
sbag1
(g2
g3
(dp172
tp173
Rp174
(dp175
g8
Vhmv
p176
sg10
VSad news. Seems #GuillermoDelToro has given up hope on bringing #Hellboy3 to the big screen: http://t.co/fHPZcN0LqX http://t.co/zVvzOMyO2s
p177
sg12
L488666540158763009L
sg13
Va day ago
p178
sg15
Vhttps://pbs.twimg.com/profile_images/472314907879170048/vBn9EfeR_normal.jpeg
p179
sg17
Vhmvtweets
p180
sbag1
(g2
g3
(dp181
tp182
Rp183
(dp184
g8
Vhmv
p185
sg10
VWe asked @SLOWCLUBHQ to give us a track by track guide to #CompleteSurrender, so they did, and it's here: http://t.co/BwnM3f7T7V
p186
sg12
L488657478427504642L
sg13
Va day ago
p187
sg15
Vhttps://pbs.twimg.com/profile_images/472314907879170048/vBn9EfeR_normal.jpeg
p188
sg17
Vhmvtweets
p189
sbag1
(g2
g3
(dp190
tp191
Rp192
(dp193
g8
Vhmv
p194
sg10
V-@frankturner has announced an extensive tour for September and has promised he will be debuting new songs: http://t.co/ilcB6XXs3Y
p195
sg12
L488656578241765378L
sg13
Va day ago
p196
sg15
Vhttps://pbs.twimg.com/profile_images/472314907879170048/vBn9EfeR_normal.jpeg
p197
sg17
Vhmvtweets
p198
sbag1
(g2
g3
(dp199
tp200
Rp201
(dp202
g8
Vhmv
p203
sg10
VTo celebrate the release of their new album #CompleteSurrender, @SLOWCLUBHQ have taken over our website! http://t.co/wFj8J4Pnfc
p204
sg12
L488650477048193024L
sg13
Va day ago
p205
sg15
Vhttps://pbs.twimg.com/profile_images/472314907879170048/vBn9EfeR_normal.jpeg
p206
sg17
Vhmvtweets
p207
sbag1
(g2
g3
(dp208
tp209
Rp210
(dp211
g8
Vhmv
p212
sg10
V@MichaelYNWA92 Great to hear MichaelMoz! Enjoy
p213
sg12
L488636363852746752L
sg13
Va day ago
p214
sg15
Vhttps://pbs.twimg.com/profile_images/472314907879170048/vBn9EfeR_normal.jpeg
p215
sg17
Vhmvtweets
p216
sbag1
(g2
g3
(dp217
tp218
Rp219
(dp220
g8
Vhmv
p221
sg10
VHappy #MozDay everyone, our exclusive 10" EP is going fast, get in their quick if you're still after one! http://t.co/qpI03ux2Cs
p222
sg12
L488635244099436544L
sg13
Va day ago
p223
sg15
Vhttps://pbs.twimg.com/profile_images/472314907879170048/vBn9EfeR_normal.jpeg
p224
sg17
Vhmvtweets
p225
sbag1
(g2
g3
(dp226
tp227
Rp228
(dp229
g8
Vhmv
p230
sg10
VSo @EASPORTSFIFA were correct in their Germany prediction! Strong results from the game's 2014 engine #WorldCup2014 http://t.co/oR7EWbJrmE
p231
sg12
L488610721614540800L
sg13
Va day ago
p232
sg15
Vhttps://pbs.twimg.com/profile_images/472314907879170048/vBn9EfeR_normal.jpeg
p233
sg17
Vhmvtweets
p234
sbag1
(g2
g3
(dp235
tp236
Rp237
(dp238
g8
Vhmv
p239
sg10
V#TheNational have announced details of a huge London show for later this year: http://t.co/vlHnXWO4Js http://t.co/yoszSAsI1r
p240
sg12
L488609267507687425L
sg13
Va day ago
p241
sg15
Vhttps://pbs.twimg.com/profile_images/472314907879170048/vBn9EfeR_normal.jpeg
p242
sg17
Vhmvtweets
p243
sbag1
(g2
g3
(dp244
tp245
Rp246
(dp247
g8
Vhmv
p248
sg10
V#MeekMill has been sent to prison for the second time for violating his parole conditions: http://t.co/Ispuk34x9I
p249
sg12
L488606237949317120L
sg13
Va day ago
p250
sg15
Vhttps://pbs.twimg.com/profile_images/472314907879170048/vBn9EfeR_normal.jpeg
p251
sg17
Vhmvtweets
p252
sbag1
(g2
g3
(dp253
tp254
Rp255
(dp256
g8
Vhmv
p257
sg10
V#YvesSaintLaurent, #TheHooliganFactory, #UnderTheSkin, #FallingSkies and lots, lots more. It's this week's new DVDs: http://t.co/cKLwctmpe8
p258
sg12
L488602356976590849L
sg13
Va day ago
p259
sg15
Vhttps://pbs.twimg.com/profile_images/472314907879170048/vBn9EfeR_normal.jpeg
p260
sg17
Vhmvtweets
p261
sbag1
(g2
g3
(dp262
tp263
Rp264
(dp265
g8
Vhmv
p266
sg10
V#Jungle, #Morrissey, @riseagainst, #JasonMraz, @SLOWCLUBHQ and more, it's this our guide to the week's new albums: http://t.co/zRBLMSV3wP
p267
sg12
L488599499967692800L
sg13
Va day ago
p268
sg15
Vhttps://pbs.twimg.com/profile_images/472314907879170048/vBn9EfeR_normal.jpeg
p269
sg17
Vhmvtweets
p270
sbag1
(g2
g3
(dp271
tp272
Rp273
(dp274
g8
Vhmv
p275
sg10
VA metal band, featuring two 13-year-olds and a 12-year-old, have landed a record deal worth $1.7 million dollars: http://t.co/yo7CXa9jS5
p276
sg12
L488595064109953024L
sg13
Va day ago
p277
sg15
Vhttps://pbs.twimg.com/profile_images/472314907879170048/vBn9EfeR_normal.jpeg
p278
sg17
Vhmvtweets
p279
sba.